(lp0
(F0.16666666666666666
F4.0148266746933675e-14
tp1
a(F0.0
F8.029653349386734e-15
tp2
a(F0.0
F1.873585781523571e-14
tp3
a(F0.0
F2.6765511164622447e-15
tp4
a(F0.0
F2.6765511164622447e-15
tp5
a(F0.0
F2.6765511164622447e-15
tp6
a(F0.0
F2.6765511164622447e-15
tp7
a(F0.0
F2.6765511164622447e-15
tp8
a(F0.0
F2.6765511164622447e-15
tp9
a(F0.0
F2.6765511164622447e-15
tp10
a(F0.0
F2.6765511164622447e-15
tp11
a(F0.0
F2.6765511164622447e-15
tp12
a(F0.0
F2.6765511164622447e-15
tp13
a(F0.0
F2.6765511164622447e-15
tp14
a(F0.0
F2.6765511164622447e-15
tp15
a(F0.0
F2.6765511164622447e-15
tp16
a(F0.0
F2.6765511164622447e-15
tp17
a(F0.0
F8.029653349386734e-15
tp18
a(F0.0
F2.6765511164622447e-15
tp19
a(F0.0
F1.3382755582311223e-14
tp20
a(F0.0
F1.873585781523571e-14
tp21
a(F0.0
F2.6765511164622447e-15
tp22
a(F0.0
F8.029653349386734e-15
tp23
a(F0.0
F2.6765511164622447e-15
tp24
a(F0.0
F2.6765511164622447e-15
tp25
a(F0.0
F2.6765511164622447e-15
tp26
a(F0.0
F2.6765511164622447e-15
tp27
a(F0.0
F2.6765511164622447e-15
tp28
a(F0.0
F8.029653349386734e-15
tp29
a(F0.0
F2.6765511164622447e-15
tp30
a(F0.0
F8.029653349386734e-15
tp31
a(F0.0
F2.6765511164622447e-15
tp32
a(F0.0
F2.6765511164622447e-15
tp33
a(F0.0
F6.028268280320372e-16
tp34
a(F0.0
F6.028268280320372e-16
tp35
a(F0.0
F6.028268280320372e-16
tp36
a(F0.0
F6.028268280320372e-16
tp37
a(F0.0
F6.028268280320372e-16
tp38
a(F0.0
F6.028268280320372e-16
tp39
a(F0.0
F6.028268280320372e-16
tp40
a(F0.0
F6.028268280320372e-16
tp41
a(F0.0
F6.028268280320372e-16
tp42
a(F0.0
F6.028268280320372e-16
tp43
a(F0.0
F6.028268280320372e-16
tp44
a(F0.0
F6.028268280320372e-16
tp45
a(F0.0
F6.028268280320372e-16
tp46
a(F0.0
F1.8084804840961118e-15
tp47
a(F0.0
F6.028268280320372e-16
tp48
a(F0.0
F6.028268280320372e-16
tp49
a(F0.0
F6.028268280320372e-16
tp50
a(F0.0
F3.014134140160186e-15
tp51
a(F0.0
F6.028268280320372e-16
tp52
a(F0.16666666666666666
F1.8084804840961118e-15
tp53
a(F0.0
F6.028268280320372e-16
tp54
a(F0.0
F9.04240242048056e-15
tp55
a(F0.0
F6.028268280320372e-16
tp56
a(F0.0
F6.028268280320372e-16
tp57
a(F0.0
F6.028268280320372e-16
tp58
a(F0.0
F6.028268280320372e-16
tp59
a(F0.0
F6.028268280320372e-16
tp60
a(F0.0
F6.028268280320372e-16
tp61
a(F0.0
F6.028268280320372e-16
tp62
a(F0.0
F6.028268280320372e-16
tp63
a(F0.0
F6.028268280320372e-16
tp64
a(F0.0
F6.028268280320372e-16
tp65
a(F0.0
F6.028268280320372e-16
tp66
a(F0.0
F2.347851856545828e-16
tp67
a(F0.0
F2.347851856545828e-16
tp68
a(F0.0
F2.347851856545828e-16
tp69
a(F0.0
F2.347851856545828e-16
tp70
a(F0.0
F2.347851856545828e-16
tp71
a(F0.0
F2.347851856545828e-16
tp72
a(F0.0
F2.347851856545828e-16
tp73
a(F0.0
F2.347851856545828e-16
tp74
a(F0.0
F2.347851856545828e-16
tp75
a(F0.0
F2.347851856545828e-16
tp76
a(F0.0
F2.347851856545828e-16
tp77
a(F0.0
F2.347851856545828e-16
tp78
a(F0.0
F2.347851856545828e-16
tp79
a(F0.0
F7.043555569637485e-16
tp80
a(F0.0
F5.869629641364571e-15
tp81
a(F0.0
F2.347851856545828e-16
tp82
a(F0.0
F2.347851856545828e-16
tp83
a(F0.0
F1.1739259282729142e-15
tp84
a(F0.0
F2.347851856545828e-16
tp85
a(F0.16666666666666666
F7.043555569637485e-16
tp86
a(F0.0
F2.347851856545828e-16
tp87
a(F0.0
F7.043555569637485e-16
tp88
a(F0.0
F2.347851856545828e-16
tp89
a(F0.0
F2.347851856545828e-16
tp90
a(F0.0
F2.347851856545828e-16
tp91
a(F0.0
F2.347851856545828e-16
tp92
a(F0.0
F2.347851856545828e-16
tp93
a(F0.0
F2.347851856545828e-16
tp94
a(F0.0
F2.347851856545828e-16
tp95
a(F0.0
F2.347851856545828e-16
tp96
a(F0.0
F2.347851856545828e-16
tp97
a(F0.0
F2.347851856545828e-16
tp98
a(F0.0
F2.347851856545828e-16
tp99
a(F0.0
F1.35179349316275e-16
tp100
a(F0.3333333333333333
F2.3994581361471753e-17
tp101
a(F0.5
F1.079756161266229e-15
tp102
a(F0.3333333333333333
F2.3994581361471753e-17
tp103
a(F0.3333333333333333
F2.3994581361471753e-17
tp104
a(F0.3333333333333333
F2.3994581361471753e-17
tp105
a(F0.3333333333333333
F2.3994581361471753e-17
tp106
a(F0.3333333333333333
F2.3994581361471753e-17
tp107
a(F0.3333333333333333
F2.3994581361471753e-17
tp108
a(F0.3333333333333333
F7.198374408441526e-17
tp109
a(F0.3333333333333333
F7.198374408441526e-17
tp110
a(F0.3333333333333333
F2.3994581361471753e-17
tp111
a(F0.3333333333333333
F7.198374408441526e-17
tp112
a(F0.3333333333333333
F2.3994581361471753e-17
tp113
a(F0.3333333333333333
F2.3994581361471753e-17
tp114
a(F0.3333333333333333
F2.3994581361471753e-17
tp115
a(F0.3333333333333333
F2.3994581361471753e-17
tp116
a(F0.3333333333333333
F2.3994581361471753e-17
tp117
a(F0.3333333333333333
F2.3994581361471753e-17
tp118
a(F0.3333333333333333
F2.3994581361471753e-17
tp119
a(F0.3333333333333333
F2.3994581361471753e-17
tp120
a(F0.3333333333333333
F2.3994581361471753e-17
tp121
a(F0.3333333333333333
F2.3994581361471753e-17
tp122
a(F0.3333333333333333
F7.198374408441526e-17
tp123
a(F0.3333333333333333
F2.3994581361471753e-17
tp124
a(F0.3333333333333333
F2.639403949761893e-16
tp125
a(F0.3333333333333333
F2.3994581361471753e-17
tp126
a(F0.3333333333333333
F2.3994581361471753e-17
tp127
a(F0.3333333333333333
F2.3994581361471753e-17
tp128
a(F0.3333333333333333
F2.3994581361471753e-17
tp129
a(F0.3333333333333333
F7.198374408441526e-17
tp130
a(F0.3333333333333333
F7.198374408441526e-17
tp131
a(F0.3333333333333333
F2.3994581361471753e-17
tp132
a(F0.3333333333333333
F2.3994581361471753e-17
tp133
a(F0.16666666666666666
F1.6699525489668983e-18
tp134
a(F0.16666666666666666
F1.6699525489668983e-18
tp135
a(F0.16666666666666666
F1.6699525489668983e-18
tp136
a(F0.16666666666666666
F1.6699525489668983e-18
tp137
a(F0.16666666666666666
F1.6699525489668983e-18
tp138
a(F0.16666666666666666
F1.6699525489668983e-18
tp139
a(F0.16666666666666666
F1.6699525489668983e-18
tp140
a(F0.16666666666666666
F5.009857646900695e-18
tp141
a(F0.16666666666666666
F1.6699525489668983e-18
tp142
a(F0.16666666666666666
F8.34976274483449e-18
tp143
a(F0.16666666666666666
F1.6699525489668983e-18
tp144
a(F0.16666666666666666
F1.6699525489668983e-18
tp145
a(F0.3333333333333333
F8.34976274483449e-18
tp146
a(F0.16666666666666666
F1.6699525489668983e-18
tp147
a(F0.16666666666666666
F1.6699525489668983e-18
tp148
a(F0.16666666666666666
F1.6699525489668983e-18
tp149
a(F0.16666666666666666
F1.6699525489668983e-18
tp150
a(F0.16666666666666666
F1.6699525489668983e-18
tp151
a(F0.16666666666666666
F1.6699525489668983e-18
tp152
a(F0.16666666666666666
F1.6699525489668983e-18
tp153
a(F0.16666666666666666
F5.009857646900695e-18
tp154
a(F0.16666666666666666
F1.6699525489668983e-18
tp155
a(F0.16666666666666666
F5.009857646900695e-18
tp156
a(F0.16666666666666666
F5.009857646900695e-18
tp157
a(F0.16666666666666666
F1.6699525489668983e-18
tp158
a(F0.16666666666666666
F1.6699525489668983e-18
tp159
a(F0.16666666666666666
F1.6699525489668983e-18
tp160
a(F0.16666666666666666
F1.6699525489668983e-18
tp161
a(F0.16666666666666666
F1.6699525489668983e-18
tp162
a(F0.16666666666666666
F1.6699525489668983e-18
tp163
a(F0.16666666666666666
F1.6699525489668983e-18
tp164
a(F0.16666666666666666
F1.6699525489668983e-18
tp165
a(F0.16666666666666666
F1.6699525489668983e-18
tp166
a(F0.16666666666666666
F3.9874377189617775e-18
tp167
a(F0.16666666666666666
F3.9874377189617775e-18
tp168
a(F0.16666666666666666
F3.9874377189617775e-18
tp169
a(F0.16666666666666666
F3.9874377189617775e-18
tp170
a(F0.16666666666666666
F3.9874377189617775e-18
tp171
a(F0.16666666666666666
F3.9874377189617775e-18
tp172
a(F0.16666666666666666
F3.9874377189617775e-18
tp173
a(F0.16666666666666666
F3.9874377189617775e-18
tp174
a(F0.16666666666666666
F3.9874377189617775e-18
tp175
a(F0.16666666666666666
F3.9874377189617775e-18
tp176
a(F0.16666666666666666
F3.9874377189617775e-18
tp177
a(F0.16666666666666666
F3.9874377189617775e-18
tp178
a(F0.3333333333333333
F1.9937188594808887e-17
tp179
a(F0.16666666666666666
F3.9874377189617775e-18
tp180
a(F0.16666666666666666
F3.9874377189617775e-18
tp181
a(F0.16666666666666666
F3.9874377189617775e-18
tp182
a(F0.16666666666666666
F3.9874377189617775e-18
tp183
a(F0.16666666666666666
F3.9874377189617775e-18
tp184
a(F0.16666666666666666
F3.9874377189617775e-18
tp185
a(F0.16666666666666666
F5.981156578442666e-17
tp186
a(F0.16666666666666666
F3.5886939470655996e-17
tp187
a(F0.16666666666666666
F3.9874377189617775e-18
tp188
a(F0.16666666666666666
F1.196231315688533e-17
tp189
a(F0.16666666666666666
F1.196231315688533e-17
tp190
a(F0.16666666666666666
F3.9874377189617775e-18
tp191
a(F0.16666666666666666
F3.9874377189617775e-18
tp192
a(F0.16666666666666666
F3.9874377189617775e-18
tp193
a(F0.16666666666666666
F3.9874377189617775e-18
tp194
a(F0.16666666666666666
F3.9874377189617775e-18
tp195
a(F0.16666666666666666
F3.9874377189617775e-18
tp196
a(F0.16666666666666666
F3.9874377189617775e-18
tp197
a(F0.16666666666666666
F3.9874377189617775e-18
tp198
a(F0.16666666666666666
F3.9874377189617775e-18
tp199
a(F0.16666666666666666
F4.5438243774215594e-18
tp200
a(F0.0
F9.372660445104515e-15
tp201
a(F0.0
F4.016854476473364e-15
tp202
a(F0.0
F4.463171640525959e-16
tp203
a(F0.0
F4.463171640525959e-16
tp204
a(F0.0
F4.463171640525959e-16
tp205
a(F0.0
F4.463171640525959e-16
tp206
a(F0.16666666666666666
F3.1242201483681723e-15
tp207
a(F0.0
F4.463171640525959e-16
tp208
a(F0.0
F4.463171640525959e-16
tp209
a(F0.0
F4.463171640525959e-16
tp210
a(F0.0
F4.463171640525959e-16
tp211
a(F0.0
F4.463171640525959e-16
tp212
a(F0.0
F4.463171640525959e-16
tp213
a(F0.0
F1.338951492157788e-15
tp214
a(F0.0
F1.338951492157788e-15
tp215
a(F0.0
F1.3389514921577881e-15
tp216
a(F0.0
F1.338951492157788e-15
tp217
a(F0.0
F1.3389514921577881e-15
tp218
a(F0.0
F4.463171640525959e-16
tp219
a(F0.0
F4.463171640525959e-16
tp220
a(F0.0
F4.463171640525959e-16
tp221
a(F0.0
F4.463171640525959e-16
tp222
a(F0.0
F4.463171640525959e-16
tp223
a(F0.0
F4.463171640525959e-16
tp224
a(F0.0
F4.463171640525959e-16
tp225
a(F0.0
F4.463171640525959e-16
tp226
a(F0.0
F4.463171640525959e-16
tp227
a(F0.0
F4.463171640525959e-16
tp228
a(F0.0
F4.463171640525959e-16
tp229
a(F0.0
F4.463171640525959e-16
tp230
a(F0.0
F1.3389514921577881e-15
tp231
a(F0.0
F4.463171640525959e-16
tp232
a(F0.0
F4.463171640525959e-16
tp233
a(F0.0
F6.144106414230541e-17
tp234
a(F0.0
F6.144106414230541e-17
tp235
a(F0.0
F6.144106414230541e-17
tp236
a(F0.0
F6.144106414230541e-17
tp237
a(F0.0
F6.144106414230541e-17
tp238
a(F0.0
F1.8432319242691625e-16
tp239
a(F0.0
F6.144106414230541e-17
tp240
a(F0.0
F6.144106414230541e-17
tp241
a(F0.0
F1.8432319242691625e-16
tp242
a(F0.0
F6.144106414230541e-17
tp243
a(F0.0
F6.144106414230541e-17
tp244
a(F0.0
F6.144106414230541e-17
tp245
a(F0.0
F6.144106414230541e-17
tp246
a(F0.0
F6.144106414230541e-17
tp247
a(F0.0
F1.8432319242691625e-16
tp248
a(F0.0
F6.144106414230541e-17
tp249
a(F0.0
F6.144106414230541e-17
tp250
a(F0.0
F1.8432319242691625e-16
tp251
a(F0.0
F6.144106414230541e-17
tp252
a(F0.0
F6.144106414230541e-17
tp253
a(F0.0
F1.8432319242691625e-16
tp254
a(F0.0
F6.144106414230541e-17
tp255
a(F0.0
F1.8432319242691625e-16
tp256
a(F0.0
F6.144106414230541e-17
tp257
a(F0.0
F6.144106414230541e-17
tp258
a(F0.0
F6.144106414230541e-17
tp259
a(F0.0
F6.144106414230541e-17
tp260
a(F0.0
F6.144106414230541e-17
tp261
a(F0.0
F6.144106414230541e-17
tp262
a(F0.0
F6.144106414230541e-17
tp263
a(F0.0
F6.144106414230541e-17
tp264
a(F0.0
F6.144106414230541e-17
tp265
a(F0.16666666666666666
F6.144106414230541e-17
tp266
a(F0.0
F5.811992554001864e-17
tp267
a(F0.0
F5.811992554001864e-17
tp268
a(F0.0
F5.811992554001864e-17
tp269
a(F0.0
F5.811992554001864e-17
tp270
a(F0.0
F5.811992554001864e-17
tp271
a(F0.0
F5.811992554001864e-17
tp272
a(F0.0
F5.811992554001864e-17
tp273
a(F0.0
F5.811992554001864e-17
tp274
a(F0.0
F1.7435977662005594e-16
tp275
a(F0.0
F5.811992554001864e-17
tp276
a(F0.0
F5.811992554001864e-17
tp277
a(F0.0
F5.811992554001864e-17
tp278
a(F0.0
F5.811992554001864e-17
tp279
a(F0.0
F5.811992554001864e-17
tp280
a(F0.0
F1.7435977662005594e-16
tp281
a(F0.0
F1.7435977662005594e-16
tp282
a(F0.0
F5.811992554001864e-17
tp283
a(F0.0
F1.7435977662005594e-16
tp284
a(F0.0
F5.811992554001864e-17
tp285
a(F0.0
F5.811992554001864e-17
tp286
a(F0.0
F1.7435977662005594e-16
tp287
a(F0.0
F5.811992554001864e-17
tp288
a(F0.0
F1.7435977662005594e-16
tp289
a(F0.0
F5.811992554001864e-17
tp290
a(F0.0
F5.811992554001864e-17
tp291
a(F0.0
F5.811992554001864e-17
tp292
a(F0.0
F5.811992554001864e-17
tp293
a(F0.0
F5.811992554001864e-17
tp294
a(F0.0
F1.7435977662005594e-16
tp295
a(F0.0
F5.811992554001864e-17
tp296
a(F0.0
F5.811992554001864e-17
tp297
a(F0.0
F5.811992554001864e-17
tp298
a(F0.16666666666666666
F5.811992554001864e-17
tp299
a(F0.0
F5.5139416537966396e-17
tp300
a(F0.0
F3.8258306410266505e-17
tp301
a(F0.0
F1.2752768803422169e-17
tp302
a(F0.0
F3.8258306410266505e-17
tp303
a(F0.0
F1.2752768803422169e-17
tp304
a(F0.0
F3.8258306410266505e-17
tp305
a(F0.0
F1.2752768803422169e-17
tp306
a(F0.0
F1.2752768803422169e-17
tp307
a(F0.0
F1.2752768803422169e-17
tp308
a(F0.0
F1.2752768803422169e-17
tp309
a(F0.0
F3.8258306410266505e-17
tp310
a(F0.0
F1.2752768803422169e-17
tp311
a(F0.0
F1.2752768803422169e-17
tp312
a(F0.16666666666666666
F1.2752768803422169e-17
tp313
a(F0.0
F1.2752768803422169e-17
tp314
a(F0.0
F1.2752768803422169e-17
tp315
a(F0.0
F1.2752768803422169e-17
tp316
a(F0.0
F1.2752768803422169e-17
tp317
a(F0.0
F1.2752768803422169e-17
tp318
a(F0.0
F1.2752768803422169e-17
tp319
a(F0.0
F1.2752768803422169e-17
tp320
a(F0.0
F1.2752768803422169e-17
tp321
a(F0.0
F1.2752768803422169e-17
tp322
a(F0.0
F1.2752768803422169e-17
tp323
a(F0.0
F1.2752768803422169e-17
tp324
a(F0.0
F1.2752768803422169e-17
tp325
a(F0.0
F1.2752768803422169e-17
tp326
a(F0.0
F1.2752768803422169e-17
tp327
a(F0.0
F1.2752768803422169e-17
tp328
a(F0.0
F3.8258306410266505e-17
tp329
a(F0.0
F1.2752768803422169e-17
tp330
a(F0.0
F1.2752768803422169e-17
tp331
a(F0.0
F1.2752768803422169e-17
tp332
a(F0.0
F1.2752768803422169e-17
tp333
a(F0.0
F6.644863744941023e-17
tp334
a(F0.0
F6.644863744941023e-17
tp335
a(F0.0
F6.644863744941023e-17
tp336
a(F0.0
F6.644863744941023e-17
tp337
a(F0.0
F6.644863744941023e-17
tp338
a(F0.0
F6.644863744941023e-17
tp339
a(F0.0
F6.644863744941023e-17
tp340
a(F0.0
F6.644863744941023e-17
tp341
a(F0.16666666666666666
F6.644863744941023e-17
tp342
a(F0.0
F6.644863744941023e-17
tp343
a(F0.0
F1.993459123482307e-16
tp344
a(F0.0
F1.993459123482307e-16
tp345
a(F0.0
F1.993459123482307e-16
tp346
a(F0.0
F1.993459123482307e-16
tp347
a(F0.0
F1.993459123482307e-16
tp348
a(F0.0
F1.993459123482307e-16
tp349
a(F0.0
F3.3224318724705113e-16
tp350
a(F0.0
F1.993459123482307e-16
tp351
a(F0.0
F6.644863744941023e-17
tp352
a(F0.0
F1.993459123482307e-16
tp353
a(F0.0
F9.967295617411535e-16
tp354
a(F0.0
F1.993459123482307e-16
tp355
a(F0.0
F1.993459123482307e-16
tp356
a(F0.0
F3.3224318724705113e-16
tp357
a(F0.0
F6.644863744941023e-17
tp358
a(F0.0
F6.644863744941023e-17
tp359
a(F0.0
F6.644863744941023e-17
tp360
a(F0.0
F6.644863744941023e-17
tp361
a(F0.0
F6.644863744941023e-17
tp362
a(F0.0
F6.644863744941023e-17
tp363
a(F0.0
F6.644863744941023e-17
tp364
a(F0.0
F6.644863744941023e-17
tp365
a(F0.0
F6.644863744941023e-17
tp366
a(F0.0
F4.125895789342465e-17
tp367
a(F0.0
F4.125895789342465e-17
tp368
a(F0.0
F4.125895789342465e-17
tp369
a(F0.0
F4.125895789342465e-17
tp370
a(F0.0
F4.125895789342465e-17
tp371
a(F0.0
F4.125895789342465e-17
tp372
a(F0.0
F4.125895789342465e-17
tp373
a(F0.0
F4.125895789342465e-17
tp374
a(F0.16666666666666666
F4.125895789342465e-17
tp375
a(F0.0
F4.125895789342465e-17
tp376
a(F0.0
F1.2377687368027395e-16
tp377
a(F0.0
F4.125895789342465e-17
tp378
a(F0.0
F4.125895789342465e-17
tp379
a(F0.0
F1.2377687368027395e-16
tp380
a(F0.0
F1.2377687368027395e-16
tp381
a(F0.0
F1.2377687368027395e-16
tp382
a(F0.0
F4.125895789342465e-17
tp383
a(F0.0
F4.125895789342465e-17
tp384
a(F0.0
F4.125895789342465e-17
tp385
a(F0.0
F4.125895789342465e-17
tp386
a(F0.0
F1.2377687368027395e-16
tp387
a(F0.0
F3.7133062104082184e-16
tp388
a(F0.0
F4.125895789342465e-17
tp389
a(F0.0
F4.125895789342465e-17
tp390
a(F0.0
F4.125895789342465e-17
tp391
a(F0.0
F1.2377687368027395e-16
tp392
a(F0.0
F4.125895789342465e-17
tp393
a(F0.0
F4.125895789342465e-17
tp394
a(F0.0
F4.125895789342465e-17
tp395
a(F0.0
F4.125895789342465e-17
tp396
a(F0.0
F1.2377687368027395e-16
tp397
a(F0.0
F4.125895789342465e-17
tp398
a(F0.0
F2.0629478946712327e-16
tp399
a(F0.0
F1.079080437212645e-17
tp400
a(F0.0
F2.3612212087638713e-17
tp401
a(F0.0
F2.3612212087638713e-17
tp402
a(F0.0
F2.1465647352398833e-18
tp403
a(F0.0
F1.0732823676199418e-17
tp404
a(F0.0
F2.1465647352398833e-18
tp405
a(F0.0
F2.1465647352398833e-18
tp406
a(F0.0
F2.1465647352398833e-18
tp407
a(F0.0
F2.1465647352398833e-18
tp408
a(F0.0
F2.1465647352398833e-18
tp409
a(F0.0
F2.1465647352398833e-18
tp410
a(F0.0
F2.1465647352398833e-18
tp411
a(F0.0
F2.1465647352398833e-18
tp412
a(F0.0
F2.1465647352398833e-18
tp413
a(F0.16666666666666666
F1.0732823676199418e-17
tp414
a(F0.0
F6.439694205719651e-18
tp415
a(F0.0
F2.1465647352398833e-18
tp416
a(F0.0
F2.1465647352398833e-18
tp417
a(F0.0
F2.1465647352398833e-18
tp418
a(F0.0
F2.1465647352398833e-18
tp419
a(F0.0
F6.439694205719651e-18
tp420
a(F0.0
F2.1465647352398833e-18
tp421
a(F0.0
F6.439694205719651e-18
tp422
a(F0.0
F2.1465647352398833e-18
tp423
a(F0.0
F2.1465647352398833e-18
tp424
a(F0.0
F6.4396942057196495e-18
tp425
a(F0.0
F2.1465647352398833e-18
tp426
a(F0.0
F2.1465647352398833e-18
tp427
a(F0.0
F2.1465647352398833e-18
tp428
a(F0.0
F2.1465647352398833e-18
tp429
a(F0.0
F2.1465647352398833e-18
tp430
a(F0.0
F2.1465647352398833e-18
tp431
a(F0.0
F2.1465647352398833e-18
tp432
a(F0.0
F2.1465647352398833e-18
tp433
a(F0.0
F5.566915137545191e-20
tp434
a(F0.0
F5.566915137545191e-20
tp435
a(F0.0
F5.566915137545191e-20
tp436
a(F0.0
F5.566915137545191e-20
tp437
a(F0.0
F5.566915137545191e-20
tp438
a(F0.0
F5.566915137545191e-20
tp439
a(F0.0
F5.566915137545191e-20
tp440
a(F0.0
F5.566915137545191e-20
tp441
a(F0.0
F5.566915137545191e-20
tp442
a(F0.0
F5.566915137545191e-20
tp443
a(F0.0
F5.566915137545191e-20
tp444
a(F0.0
F5.566915137545191e-20
tp445
a(F0.0
F5.566915137545191e-20
tp446
a(F0.0
F5.566915137545191e-20
tp447
a(F0.0
F8.350372706317788e-19
tp448
a(F0.0
F2.7834575687725957e-19
tp449
a(F0.0
F1.6700745412635577e-19
tp450
a(F0.0
F3.896840596281634e-19
tp451
a(F0.0
F3.896840596281634e-19
tp452
a(F0.0
F5.566915137545191e-20
tp453
a(F0.0
F2.7834575687725957e-19
tp454
a(F0.16666666666666666
F2.7834575687725957e-19
tp455
a(F0.0
F5.566915137545191e-20
tp456
a(F0.0
F1.6700745412635577e-19
tp457
a(F0.0
F5.566915137545191e-20
tp458
a(F0.0
F5.566915137545191e-20
tp459
a(F0.0
F5.566915137545191e-20
tp460
a(F0.0
F5.566915137545191e-20
tp461
a(F0.0
F5.566915137545191e-20
tp462
a(F0.0
F5.566915137545191e-20
tp463
a(F0.0
F5.566915137545191e-20
tp464
a(F0.0
F5.566915137545191e-20
tp465
a(F0.0
F5.566915137545191e-20
tp466
a(F0.0
F9.278191895908651e-20
tp467
a(F0.0
F9.278191895908651e-20
tp468
a(F0.0
F9.278191895908651e-20
tp469
a(F0.0
F2.7834575687725957e-19
tp470
a(F0.0
F9.278191895908651e-20
tp471
a(F0.0
F9.278191895908651e-20
tp472
a(F0.0
F9.278191895908651e-20
tp473
a(F0.0
F9.278191895908651e-20
tp474
a(F0.0
F9.278191895908651e-20
tp475
a(F0.0
F4.639095947954326e-19
tp476
a(F0.0
F9.278191895908651e-20
tp477
a(F0.0
F9.278191895908651e-20
tp478
a(F0.0
F9.278191895908651e-20
tp479
a(F0.0
F9.278191895908651e-20
tp480
a(F0.0
F9.278191895908651e-20
tp481
a(F0.0
F4.639095947954326e-19
tp482
a(F0.0
F9.278191895908651e-20
tp483
a(F0.0
F9.278191895908651e-20
tp484
a(F0.0
F9.278191895908651e-20
tp485
a(F0.0
F9.278191895908651e-20
tp486
a(F0.0
F9.278191895908651e-20
tp487
a(F0.16666666666666666
F4.639095947954326e-19
tp488
a(F0.0
F9.278191895908651e-20
tp489
a(F0.0
F9.278191895908651e-20
tp490
a(F0.0
F2.7834575687725957e-19
tp491
a(F0.0
F9.278191895908651e-20
tp492
a(F0.0
F9.278191895908651e-20
tp493
a(F0.0
F9.278191895908651e-20
tp494
a(F0.0
F9.278191895908651e-20
tp495
a(F0.0
F9.278191895908651e-20
tp496
a(F0.0
F9.278191895908651e-20
tp497
a(F0.0
F9.278191895908651e-20
tp498
a(F0.0
F9.278191895908651e-20
tp499
a(F0.0
F8.801744203956588e-19
tp500
a(F0.0
F3.491530108197203e-18
tp501
a(F0.0
F3.1741182801792756e-19
tp502
a(F0.0
F3.1741182801792756e-19
tp503
a(F0.0
F3.1741182801792756e-19
tp504
a(F0.0
F3.1741182801792756e-19
tp505
a(F0.0
F3.1741182801792756e-19
tp506
a(F0.0
F3.1741182801792756e-19
tp507
a(F0.0
F9.522354840537827e-19
tp508
a(F0.0
F3.1741182801792756e-19
tp509
a(F0.0
F9.522354840537827e-19
tp510
a(F0.0
F3.1741182801792756e-19
tp511
a(F0.0
F3.1741182801792756e-19
tp512
a(F0.0
F3.1741182801792756e-19
tp513
a(F0.0
F3.1741182801792756e-19
tp514
a(F0.0
F3.1741182801792756e-19
tp515
a(F0.0
F9.522354840537827e-19
tp516
a(F0.0
F3.1741182801792756e-19
tp517
a(F0.0
F3.1741182801792756e-19
tp518
a(F0.0
F3.1741182801792756e-19
tp519
a(F0.0
F3.1741182801792756e-19
tp520
a(F0.0
F9.522354840537827e-19
tp521
a(F0.0
F3.1741182801792756e-19
tp522
a(F0.0
F3.1741182801792756e-19
tp523
a(F0.16666666666666666
F1.5870591400896377e-18
tp524
a(F0.0
F9.522354840537827e-19
tp525
a(F0.0
F3.1741182801792756e-19
tp526
a(F0.0
F9.522354840537827e-19
tp527
a(F0.0
F3.1741182801792756e-19
tp528
a(F0.0
F3.1741182801792756e-19
tp529
a(F0.0
F3.1741182801792756e-19
tp530
a(F0.0
F3.1741182801792756e-19
tp531
a(F0.0
F2.856706452161348e-18
tp532
a(F0.0
F3.1741182801792756e-19
tp533
a(F0.0
F2.7834575687725957e-19
tp534
a(F0.0
F2.7834575687725957e-19
tp535
a(F0.0
F9.278191895908651e-20
tp536
a(F0.0
F9.278191895908651e-20
tp537
a(F0.0
F9.278191895908651e-20
tp538
a(F0.0
F9.278191895908651e-20
tp539
a(F0.0
F9.278191895908651e-20
tp540
a(F0.0
F9.278191895908651e-20
tp541
a(F0.0
F9.278191895908651e-20
tp542
a(F0.0
F9.278191895908651e-20
tp543
a(F0.0
F4.639095947954326e-19
tp544
a(F0.0
F9.278191895908651e-20
tp545
a(F0.0
F9.278191895908651e-20
tp546
a(F0.0
F9.278191895908651e-20
tp547
a(F0.0
F9.278191895908651e-20
tp548
a(F0.0
F9.278191895908651e-20
tp549
a(F0.0
F9.278191895908651e-20
tp550
a(F0.0
F9.278191895908651e-20
tp551
a(F0.0
F9.278191895908651e-20
tp552
a(F0.0
F9.278191895908651e-20
tp553
a(F0.0
F9.278191895908651e-20
tp554
a(F0.0
F9.278191895908651e-20
tp555
a(F0.0
F2.7834575687725957e-19
tp556
a(F0.16666666666666666
F4.639095947954326e-19
tp557
a(F0.0
F9.278191895908651e-20
tp558
a(F0.0
F9.278191895908651e-20
tp559
a(F0.0
F9.278191895908651e-20
tp560
a(F0.0
F9.278191895908651e-20
tp561
a(F0.0
F9.278191895908651e-20
tp562
a(F0.0
F9.278191895908651e-20
tp563
a(F0.0
F9.278191895908651e-20
tp564
a(F0.0
F9.278191895908651e-20
tp565
a(F0.0
F2.7834575687725957e-19
tp566
a(F0.0
F5.566915137545191e-20
tp567
a(F0.0
F5.566915137545191e-20
tp568
a(F0.0
F5.566915137545191e-20
tp569
a(F0.0
F5.566915137545191e-20
tp570
a(F0.0
F5.566915137545191e-20
tp571
a(F0.0
F5.566915137545191e-20
tp572
a(F0.0
F5.566915137545191e-20
tp573
a(F0.0
F5.566915137545191e-20
tp574
a(F0.0
F5.566915137545191e-20
tp575
a(F0.0
F5.566915137545191e-20
tp576
a(F0.0
F5.566915137545191e-20
tp577
a(F0.0
F5.566915137545191e-20
tp578
a(F0.0
F5.566915137545191e-20
tp579
a(F0.0
F8.350372706317788e-19
tp580
a(F0.0
F5.566915137545191e-20
tp581
a(F0.0
F1.6700745412635577e-19
tp582
a(F0.0
F3.896840596281634e-19
tp583
a(F0.0
F5.010223623790673e-19
tp584
a(F0.0
F5.566915137545191e-20
tp585
a(F0.0
F1.6700745412635577e-19
tp586
a(F0.0
F1.6700745412635577e-19
tp587
a(F0.16666666666666666
F2.7834575687725957e-19
tp588
a(F0.0
F5.566915137545191e-20
tp589
a(F0.0
F5.566915137545191e-20
tp590
a(F0.0
F5.566915137545191e-20
tp591
a(F0.0
F5.566915137545191e-20
tp592
a(F0.0
F5.566915137545191e-20
tp593
a(F0.0
F5.566915137545191e-20
tp594
a(F0.0
F1.6700745412635577e-19
tp595
a(F0.0
F5.566915137545191e-20
tp596
a(F0.0
F5.566915137545191e-20
tp597
a(F0.0
F5.566915137545191e-20
tp598
a(F0.0
F1.6700745412635577e-19
tp599
a(F0.0
F8.801744203956588e-19
tp600
a(F0.0
F6.027377191985218e-16
tp601
a(F0.0
F1.390933198150435e-16
tp602
a(F0.0
F4.636443993834783e-17
tp603
a(F0.0
F4.636443993834783e-17
tp604
a(F0.0
F4.636443993834783e-17
tp605
a(F0.0
F4.636443993834783e-17
tp606
a(F0.0
F4.636443993834783e-17
tp607
a(F0.0
F4.636443993834783e-17
tp608
a(F0.0
F4.636443993834783e-17
tp609
a(F0.0
F3.2455107956843483e-16
tp610
a(F0.0
F4.636443993834783e-17
tp611
a(F0.0
F4.636443993834783e-17
tp612
a(F0.16666666666666666
F4.636443993834783e-17
tp613
a(F0.0
F4.636443993834783e-17
tp614
a(F0.0
F4.636443993834783e-17
tp615
a(F0.0
F4.636443993834783e-17
tp616
a(F0.0
F4.636443993834783e-17
tp617
a(F0.0
F4.636443993834783e-17
tp618
a(F0.0
F4.636443993834783e-17
tp619
a(F0.0
F4.636443993834783e-17
tp620
a(F0.0
F2.3182219969173913e-16
tp621
a(F0.0
F4.636443993834783e-17
tp622
a(F0.0
F4.636443993834783e-17
tp623
a(F0.0
F4.636443993834783e-17
tp624
a(F0.0
F4.636443993834783e-17
tp625
a(F0.0
F4.636443993834783e-17
tp626
a(F0.0
F4.636443993834783e-17
tp627
a(F0.0
F6.954665990752175e-16
tp628
a(F0.0
F2.3182219969173913e-16
tp629
a(F0.0
F4.636443993834783e-17
tp630
a(F0.0
F4.636443993834783e-17
tp631
a(F0.0
F4.636443993834783e-17
tp632
a(F0.0
F4.636443993834783e-17
tp633
a(F0.0
F1.1245842878663091e-17
tp634
a(F0.0
F1.1245842878663091e-17
tp635
a(F0.0
F1.1245842878663091e-17
tp636
a(F0.0
F1.1245842878663091e-17
tp637
a(F0.0
F3.3737528635989276e-17
tp638
a(F0.0
F1.1245842878663091e-17
tp639
a(F0.0
F1.1245842878663091e-17
tp640
a(F0.0
F1.1245842878663091e-17
tp641
a(F0.0
F1.1245842878663091e-17
tp642
a(F0.0
F1.1245842878663091e-17
tp643
a(F0.0
F1.1245842878663091e-17
tp644
a(F0.0
F1.1245842878663091e-17
tp645
a(F0.0
F7.872090015064165e-17
tp646
a(F0.0
F5.622921439331546e-17
tp647
a(F0.0
F3.3737528635989276e-17
tp648
a(F0.0
F1.1245842878663091e-17
tp649
a(F0.0
F1.1245842878663091e-17
tp650
a(F0.0
F5.622921439331546e-17
tp651
a(F0.0
F1.1245842878663091e-17
tp652
a(F0.0
F5.622921439331546e-17
tp653
a(F0.0
F1.1245842878663091e-17
tp654
a(F0.0
F1.1245842878663091e-17
tp655
a(F0.0
F1.1245842878663091e-17
tp656
a(F0.0
F1.1245842878663091e-17
tp657
a(F0.0
F1.1245842878663091e-17
tp658
a(F0.0
F1.1245842878663091e-17
tp659
a(F0.0
F1.1245842878663091e-17
tp660
a(F0.0
F1.1245842878663091e-17
tp661
a(F0.0
F1.1245842878663091e-17
tp662
a(F0.0
F1.1245842878663091e-17
tp663
a(F0.16666666666666666
F1.1245842878663091e-17
tp664
a(F0.0
F1.1245842878663091e-17
tp665
a(F0.0
F1.1245842878663091e-17
tp666
a(F0.0
F5.338935508052175e-18
tp667
a(F0.0
F5.338935508052175e-18
tp668
a(F0.0
F5.338935508052175e-18
tp669
a(F0.0
F5.338935508052175e-18
tp670
a(F0.0
F5.338935508052175e-18
tp671
a(F0.0
F5.338935508052175e-18
tp672
a(F0.0
F5.338935508052175e-18
tp673
a(F0.0
F5.338935508052175e-18
tp674
a(F0.0
F5.338935508052175e-18
tp675
a(F0.0
F5.338935508052175e-18
tp676
a(F0.0
F5.338935508052175e-18
tp677
a(F0.0
F5.338935508052175e-18
tp678
a(F0.0
F5.338935508052175e-18
tp679
a(F0.0
F1.6016806524156526e-17
tp680
a(F0.0
F5.338935508052175e-18
tp681
a(F0.0
F5.338935508052175e-18
tp682
a(F0.0
F5.338935508052175e-18
tp683
a(F0.0
F2.6694677540260876e-17
tp684
a(F0.0
F5.338935508052175e-18
tp685
a(F0.0
F2.6694677540260876e-17
tp686
a(F0.0
F5.338935508052175e-18
tp687
a(F0.0
F5.338935508052175e-18
tp688
a(F0.0
F5.338935508052175e-18
tp689
a(F0.0
F5.338935508052175e-18
tp690
a(F0.0
F5.338935508052175e-18
tp691
a(F0.0
F5.338935508052175e-18
tp692
a(F0.0
F5.338935508052175e-18
tp693
a(F0.0
F5.338935508052175e-18
tp694
a(F0.0
F5.338935508052175e-18
tp695
a(F0.0
F5.338935508052175e-18
tp696
a(F0.16666666666666666
F5.338935508052175e-18
tp697
a(F0.0
F5.338935508052175e-18
tp698
a(F0.0
F5.338935508052175e-18
tp699
a(F0.0
F4.517560814505686e-18
tp700
a(F0.16666666666666666
F1.076868459139745e-14
tp701
a(F0.16666666666666666
F2.393041020310544e-16
tp702
a(F0.16666666666666666
F2.393041020310544e-16
tp703
a(F0.16666666666666666
F2.393041020310544e-16
tp704
a(F0.16666666666666666
F2.393041020310544e-16
tp705
a(F0.16666666666666666
F7.179123060931634e-16
tp706
a(F0.16666666666666666
F5.025386142652143e-15
tp707
a(F0.16666666666666666
F7.179123060931634e-16
tp708
a(F0.16666666666666666
F2.393041020310544e-16
tp709
a(F0.16666666666666666
F2.393041020310544e-16
tp710
a(F0.16666666666666666
F2.393041020310544e-16
tp711
a(F0.16666666666666666
F2.393041020310544e-16
tp712
a(F0.16666666666666666
F2.393041020310544e-16
tp713
a(F0.16666666666666666
F2.393041020310544e-16
tp714
a(F0.16666666666666666
F2.393041020310544e-16
tp715
a(F0.16666666666666666
F2.393041020310544e-16
tp716
a(F0.16666666666666666
F7.179123060931634e-16
tp717
a(F0.16666666666666666
F1.1965205101552722e-15
tp718
a(F0.16666666666666666
F2.393041020310544e-16
tp719
a(F0.16666666666666666
F2.393041020310544e-16
tp720
a(F0.16666666666666666
F2.393041020310544e-16
tp721
a(F0.16666666666666666
F2.393041020310544e-16
tp722
a(F0.16666666666666666
F2.393041020310544e-16
tp723
a(F0.16666666666666666
F2.393041020310544e-16
tp724
a(F0.16666666666666666
F2.393041020310544e-16
tp725
a(F0.16666666666666666
F2.393041020310544e-16
tp726
a(F0.3333333333333333
F1.675128714217381e-15
tp727
a(F0.16666666666666666
F2.393041020310544e-16
tp728
a(F0.16666666666666666
F7.179123060931634e-16
tp729
a(F0.16666666666666666
F2.393041020310544e-16
tp730
a(F0.16666666666666666
F2.393041020310544e-16
tp731
a(F0.16666666666666666
F2.393041020310544e-16
tp732
a(F0.16666666666666666
F2.393041020310544e-16
tp733
a(F0.0
F8.570119356484042e-18
tp734
a(F0.0
F8.570119356484042e-18
tp735
a(F0.0
F8.570119356484042e-18
tp736
a(F0.0
F8.570119356484042e-18
tp737
a(F0.0
F8.570119356484042e-18
tp738
a(F0.0
F8.570119356484042e-18
tp739
a(F0.0
F8.570119356484042e-18
tp740
a(F0.0
F8.570119356484042e-18
tp741
a(F0.0
F8.570119356484042e-18
tp742
a(F0.0
F8.570119356484042e-18
tp743
a(F0.0
F8.570119356484042e-18
tp744
a(F0.0
F8.570119356484042e-18
tp745
a(F0.0
F8.570119356484042e-18
tp746
a(F0.0
F2.5710358069452128e-17
tp747
a(F0.0
F2.5710358069452128e-17
tp748
a(F0.0
F8.570119356484042e-18
tp749
a(F0.0
F2.5710358069452128e-17
tp750
a(F0.16666666666666666
F8.570119356484042e-18
tp751
a(F0.0
F8.570119356484042e-18
tp752
a(F0.0
F8.570119356484042e-18
tp753
a(F0.0
F2.5710358069452128e-17
tp754
a(F0.0
F9.427131292132447e-17
tp755
a(F0.0
F2.5710358069452128e-17
tp756
a(F0.0
F8.570119356484042e-18
tp757
a(F0.0
F8.570119356484042e-18
tp758
a(F0.0
F2.5710358069452128e-17
tp759
a(F0.0
F8.570119356484042e-18
tp760
a(F0.0
F8.570119356484042e-18
tp761
a(F0.0
F8.570119356484042e-18
tp762
a(F0.0
F8.570119356484042e-18
tp763
a(F0.0
F2.5710358069452128e-17
tp764
a(F0.0
F8.570119356484042e-18
tp765
a(F0.0
F1.2855179034726065e-16
tp766
a(F0.0
F1.2086065759144163e-17
tp767
a(F0.0
F1.2086065759144163e-17
tp768
a(F0.0
F1.2086065759144163e-17
tp769
a(F0.0
F1.2086065759144163e-17
tp770
a(F0.0
F1.2086065759144163e-17
tp771
a(F0.0
F1.2086065759144163e-17
tp772
a(F0.0
F1.2086065759144163e-17
tp773
a(F0.0
F1.2086065759144163e-17
tp774
a(F0.0
F1.2086065759144163e-17
tp775
a(F0.0
F1.2086065759144163e-17
tp776
a(F0.0
F1.2086065759144163e-17
tp777
a(F0.0
F1.2086065759144163e-17
tp778
a(F0.0
F1.2086065759144163e-17
tp779
a(F0.0
F1.2086065759144163e-17
tp780
a(F0.0
F3.625819727743249e-17
tp781
a(F0.0
F3.625819727743249e-17
tp782
a(F0.0
F1.2086065759144163e-17
tp783
a(F0.0
F3.625819727743249e-17
tp784
a(F0.16666666666666666
F1.2086065759144163e-17
tp785
a(F0.0
F1.2086065759144163e-17
tp786
a(F0.0
F1.2086065759144163e-17
tp787
a(F0.0
F1.2086065759144163e-17
tp788
a(F0.0
F1.2086065759144163e-17
tp789
a(F0.0
F3.625819727743249e-17
tp790
a(F0.0
F1.2086065759144163e-17
tp791
a(F0.0
F1.2086065759144163e-17
tp792
a(F0.0
F1.2086065759144163e-17
tp793
a(F0.0
F1.2086065759144163e-17
tp794
a(F0.0
F1.2086065759144163e-17
tp795
a(F0.0
F3.625819727743249e-17
tp796
a(F0.0
F1.2086065759144163e-17
tp797
a(F0.0
F1.2086065759144163e-17
tp798
a(F0.0
F1.8129098638716243e-16
tp799
a(F0.0
F1.428353226080674e-17
tp800
a(F0.0
F7.764832443004114e-16
tp801
a(F0.0
F5.176554962002743e-17
tp802
a(F0.0
F5.176554962002743e-17
tp803
a(F0.0
F5.176554962002743e-17
tp804
a(F0.0
F5.176554962002743e-17
tp805
a(F0.0
F5.176554962002743e-17
tp806
a(F0.0
F5.176554962002743e-17
tp807
a(F0.0
F5.176554962002743e-17
tp808
a(F0.0
F5.176554962002743e-17
tp809
a(F0.0
F5.176554962002743e-17
tp810
a(F0.16666666666666666
F7.764832443004115e-16
tp811
a(F0.0
F1.552966488600823e-16
tp812
a(F0.0
F5.176554962002743e-17
tp813
a(F0.0
F2.588277481001371e-16
tp814
a(F0.0
F1.552966488600823e-16
tp815
a(F0.0
F2.588277481001371e-16
tp816
a(F0.0
F1.552966488600823e-16
tp817
a(F0.0
F5.176554962002743e-17
tp818
a(F0.0
F5.176554962002743e-17
tp819
a(F0.0
F5.176554962002743e-17
tp820
a(F0.0
F1.5529664886008228e-16
tp821
a(F0.0
F5.176554962002743e-17
tp822
a(F0.0
F5.176554962002743e-17
tp823
a(F0.0
F5.176554962002743e-17
tp824
a(F0.0
F1.552966488600823e-16
tp825
a(F0.0
F5.176554962002743e-17
tp826
a(F0.0
F5.176554962002743e-17
tp827
a(F0.0
F4.658899465802468e-16
tp828
a(F0.0
F1.552966488600823e-16
tp829
a(F0.0
F5.176554962002743e-17
tp830
a(F0.0
F5.176554962002743e-17
tp831
a(F0.0
F5.176554962002743e-17
tp832
a(F0.0
F5.176554962002743e-17
tp833
a(F0.0
F2.4830629492533488e-17
tp834
a(F0.0
F7.449188847760046e-17
tp835
a(F0.0
F7.449188847760046e-17
tp836
a(F0.0
F2.4830629492533488e-17
tp837
a(F0.0
F2.4830629492533488e-17
tp838
a(F0.0
F2.4830629492533488e-17
tp839
a(F0.0
F2.4830629492533488e-17
tp840
a(F0.0
F2.4830629492533488e-17
tp841
a(F0.0
F2.4830629492533488e-17
tp842
a(F0.0
F2.4830629492533488e-17
tp843
a(F0.16666666666666666
F1.241531474626674e-16
tp844
a(F0.0
F2.4830629492533488e-17
tp845
a(F0.0
F2.4830629492533488e-17
tp846
a(F0.0
F2.4830629492533488e-17
tp847
a(F0.0
F2.4830629492533488e-17
tp848
a(F0.0
F2.4830629492533488e-17
tp849
a(F0.0
F2.4830629492533488e-17
tp850
a(F0.0
F2.4830629492533488e-17
tp851
a(F0.0
F2.4830629492533488e-17
tp852
a(F0.0
F7.449188847760045e-17
tp853
a(F0.0
F2.4830629492533488e-17
tp854
a(F0.0
F2.4830629492533488e-17
tp855
a(F0.0
F2.4830629492533488e-17
tp856
a(F0.0
F2.4830629492533488e-17
tp857
a(F0.0
F2.4830629492533488e-17
tp858
a(F0.0
F7.449188847760045e-17
tp859
a(F0.0
F7.449188847760045e-17
tp860
a(F0.0
F2.4830629492533488e-17
tp861
a(F0.0
F7.449188847760045e-17
tp862
a(F0.0
F2.4830629492533488e-17
tp863
a(F0.0
F2.4830629492533488e-17
tp864
a(F0.0
F2.4830629492533488e-17
tp865
a(F0.0
F7.449188847760046e-17
tp866
a(F0.0
F1.0283392012059322e-17
tp867
a(F0.0
F1.0283392012059322e-17
tp868
a(F0.0
F1.0283392012059322e-17
tp869
a(F0.0
F1.0283392012059322e-17
tp870
a(F0.0
F1.0283392012059322e-17
tp871
a(F0.0
F1.0283392012059322e-17
tp872
a(F0.0
F1.0283392012059322e-17
tp873
a(F0.0
F1.0283392012059322e-17
tp874
a(F0.16666666666666666
F5.1416960060296606e-17
tp875
a(F0.0
F1.0283392012059322e-17
tp876
a(F0.0
F1.0283392012059322e-17
tp877
a(F0.0
F1.0283392012059322e-17
tp878
a(F0.0
F1.0283392012059322e-17
tp879
a(F0.0
F1.0283392012059322e-17
tp880
a(F0.0
F1.0283392012059322e-17
tp881
a(F0.0
F1.0283392012059322e-17
tp882
a(F0.0
F1.0283392012059322e-17
tp883
a(F0.0
F1.0283392012059322e-17
tp884
a(F0.0
F1.0283392012059322e-17
tp885
a(F0.0
F3.085017603617797e-17
tp886
a(F0.0
F1.0283392012059322e-17
tp887
a(F0.0
F1.0283392012059322e-17
tp888
a(F0.0
F1.0283392012059322e-17
tp889
a(F0.0
F3.085017603617797e-17
tp890
a(F0.0
F1.0283392012059322e-17
tp891
a(F0.0
F1.0283392012059322e-17
tp892
a(F0.0
F1.0283392012059322e-17
tp893
a(F0.0
F1.0283392012059322e-17
tp894
a(F0.0
F1.0283392012059322e-17
tp895
a(F0.0
F1.0283392012059322e-17
tp896
a(F0.0
F1.0283392012059322e-17
tp897
a(F0.0
F1.0283392012059322e-17
tp898
a(F0.0
F3.085017603617797e-17
tp899
a(F0.0
F1.9208600173469297e-17
tp900
a(F0.0
F5.410332902205943e-15
tp901
a(F0.16666666666666666
F2.7051664511029713e-14
tp902
a(F0.0
F1.8034443007353142e-15
tp903
a(F0.0
F9.017221503676572e-15
tp904
a(F0.0
F5.410332902205943e-15
tp905
a(F0.0
F5.410332902205943e-15
tp906
a(F0.0
F1.8034443007353142e-15
tp907
a(F0.0
F1.8034443007353142e-15
tp908
a(F0.0
F1.8034443007353142e-15
tp909
a(F0.0
F1.8034443007353142e-15
tp910
a(F0.0
F1.8034443007353142e-15
tp911
a(F0.0
F1.8034443007353142e-15
tp912
a(F0.0
F1.8034443007353142e-15
tp913
a(F0.0
F1.8034443007353142e-15
tp914
a(F0.0
F1.8034443007353142e-15
tp915
a(F0.0
F1.8034443007353142e-15
tp916
a(F0.0
F1.8034443007353142e-15
tp917
a(F0.0
F1.8034443007353142e-15
tp918
a(F0.0
F1.8034443007353142e-15
tp919
a(F0.0
F1.8034443007353142e-15
tp920
a(F0.0
F1.8034443007353142e-15
tp921
a(F0.0
F1.8034443007353142e-15
tp922
a(F0.0
F1.8034443007353142e-15
tp923
a(F0.0
F1.8034443007353142e-15
tp924
a(F0.0
F1.8034443007353142e-15
tp925
a(F0.0
F1.8034443007353142e-15
tp926
a(F0.0
F1.8034443007353142e-15
tp927
a(F0.0
F1.8034443007353142e-15
tp928
a(F0.0
F1.2624110105147198e-14
tp929
a(F0.0
F1.8034443007353142e-15
tp930
a(F0.0
F5.410332902205943e-15
tp931
a(F0.0
F1.8034443007353142e-15
tp932
a(F0.0
F3.78723303154416e-14
tp933
a(F0.0
F7.729047003151346e-16
tp934
a(F0.16666666666666666
F1.2881745005252243e-15
tp935
a(F0.0
F2.576349001050449e-16
tp936
a(F0.0
F2.576349001050449e-16
tp937
a(F0.0
F2.576349001050449e-16
tp938
a(F0.0
F2.576349001050449e-16
tp939
a(F0.0
F2.576349001050449e-16
tp940
a(F0.0
F2.576349001050449e-16
tp941
a(F0.0
F2.576349001050449e-16
tp942
a(F0.0
F7.729047003151346e-16
tp943
a(F0.0
F2.576349001050449e-16
tp944
a(F0.0
F2.576349001050449e-16
tp945
a(F0.0
F2.576349001050449e-16
tp946
a(F0.0
F2.576349001050449e-16
tp947
a(F0.0
F2.576349001050449e-16
tp948
a(F0.0
F2.576349001050449e-16
tp949
a(F0.0
F2.576349001050449e-16
tp950
a(F0.0
F2.576349001050449e-16
tp951
a(F0.0
F2.576349001050449e-16
tp952
a(F0.0
F2.576349001050449e-16
tp953
a(F0.0
F7.729047003151346e-16
tp954
a(F0.0
F2.576349001050449e-16
tp955
a(F0.0
F2.576349001050449e-16
tp956
a(F0.0
F2.576349001050449e-16
tp957
a(F0.0
F2.576349001050449e-16
tp958
a(F0.0
F2.576349001050449e-16
tp959
a(F0.0
F2.576349001050449e-16
tp960
a(F0.0
F2.576349001050449e-16
tp961
a(F0.0
F2.576349001050449e-16
tp962
a(F0.0
F2.576349001050449e-16
tp963
a(F0.0
F2.576349001050449e-16
tp964
a(F0.0
F2.576349001050449e-16
tp965
a(F0.0
F7.729047003151346e-16
tp966
a(F0.0
F2.3121080778657874e-16
tp967
a(F0.0
F7.707026926219292e-17
tp968
a(F0.0
F7.707026926219292e-17
tp969
a(F0.0
F7.707026926219292e-17
tp970
a(F0.0
F7.707026926219292e-17
tp971
a(F0.0
F2.3121080778657874e-16
tp972
a(F0.0
F7.707026926219292e-17
tp973
a(F0.0
F7.707026926219292e-17
tp974
a(F0.0
F7.707026926219292e-17
tp975
a(F0.0
F7.707026926219292e-17
tp976
a(F0.0
F3.8535134631096455e-16
tp977
a(F0.0
F2.3121080778657874e-16
tp978
a(F0.0
F7.707026926219292e-17
tp979
a(F0.0
F7.707026926219292e-17
tp980
a(F0.0
F7.707026926219292e-17
tp981
a(F0.0
F7.707026926219292e-17
tp982
a(F0.0
F7.707026926219292e-17
tp983
a(F0.0
F7.707026926219292e-17
tp984
a(F0.0
F7.707026926219292e-17
tp985
a(F0.0
F7.707026926219292e-17
tp986
a(F0.16666666666666666
F3.8535134631096455e-16
tp987
a(F0.0
F7.707026926219292e-17
tp988
a(F0.0
F7.707026926219292e-17
tp989
a(F0.0
F7.707026926219292e-17
tp990
a(F0.0
F7.707026926219292e-17
tp991
a(F0.0
F7.707026926219292e-17
tp992
a(F0.0
F7.707026926219292e-17
tp993
a(F0.0
F7.707026926219292e-17
tp994
a(F0.0
F7.707026926219292e-17
tp995
a(F0.0
F7.707026926219292e-17
tp996
a(F0.0
F7.707026926219292e-17
tp997
a(F0.0
F7.707026926219292e-17
tp998
a(F0.0
F2.3121080778657874e-16
tp999
a(F0.0
F8.587830003501496e-17
tp1000
a(F0.0
F3.9271298507272244e-15
tp1001
a(F0.0
F2.618086567151483e-16
tp1002
a(F0.0
F2.618086567151483e-16
tp1003
a(F0.0
F2.618086567151483e-16
tp1004
a(F0.0
F2.618086567151483e-16
tp1005
a(F0.0
F7.854259701454449e-16
tp1006
a(F0.0
F2.618086567151483e-16
tp1007
a(F0.0
F2.618086567151483e-16
tp1008
a(F0.0
F7.854259701454449e-16
tp1009
a(F0.0
F2.618086567151483e-16
tp1010
a(F0.0
F7.854259701454449e-16
tp1011
a(F0.0
F2.618086567151483e-16
tp1012
a(F0.0
F2.618086567151483e-16
tp1013
a(F0.0
F2.618086567151483e-16
tp1014
a(F0.0
F2.618086567151483e-16
tp1015
a(F0.0
F2.618086567151483e-16
tp1016
a(F0.0
F2.618086567151483e-16
tp1017
a(F0.0
F2.618086567151483e-16
tp1018
a(F0.0
F2.618086567151483e-16
tp1019
a(F0.0
F2.618086567151483e-16
tp1020
a(F0.0
F2.618086567151483e-16
tp1021
a(F0.0
F2.618086567151483e-16
tp1022
a(F0.0
F2.618086567151483e-16
tp1023
a(F0.0
F2.618086567151483e-16
tp1024
a(F0.0
F7.854259701454449e-16
tp1025
a(F0.0
F2.618086567151483e-16
tp1026
a(F0.0
F2.618086567151483e-16
tp1027
a(F0.16666666666666666
F7.854259701454449e-16
tp1028
a(F0.0
F2.618086567151483e-16
tp1029
a(F0.0
F2.618086567151483e-16
tp1030
a(F0.0
F2.618086567151483e-16
tp1031
a(F0.0
F2.618086567151483e-16
tp1032
a(F0.0
F2.618086567151483e-16
tp1033
a(F0.0
F7.123630892016827e-16
tp1034
a(F0.0
F7.123630892016827e-16
tp1035
a(F0.0
F7.123630892016827e-16
tp1036
a(F0.0
F7.123630892016827e-16
tp1037
a(F0.0
F7.123630892016827e-16
tp1038
a(F0.0
F7.123630892016827e-16
tp1039
a(F0.0
F7.123630892016827e-16
tp1040
a(F0.0
F2.137089267605048e-15
tp1041
a(F0.0
F7.123630892016827e-16
tp1042
a(F0.0
F7.123630892016827e-16
tp1043
a(F0.0
F7.123630892016827e-16
tp1044
a(F0.0
F7.123630892016827e-16
tp1045
a(F0.0
F7.123630892016827e-16
tp1046
a(F0.0
F3.5618154460084135e-15
tp1047
a(F0.0
F2.137089267605048e-15
tp1048
a(F0.0
F7.123630892016827e-16
tp1049
a(F0.0
F2.137089267605048e-15
tp1050
a(F0.0
F7.123630892016827e-16
tp1051
a(F0.0
F7.123630892016827e-16
tp1052
a(F0.0
F7.123630892016827e-16
tp1053
a(F0.0
F7.123630892016827e-16
tp1054
a(F0.0
F7.123630892016827e-16
tp1055
a(F0.16666666666666666
F2.137089267605048e-15
tp1056
a(F0.0
F7.123630892016827e-16
tp1057
a(F0.0
F6.411267802815145e-15
tp1058
a(F0.0
F7.123630892016827e-16
tp1059
a(F0.0
F7.123630892016827e-16
tp1060
a(F0.0
F7.123630892016827e-16
tp1061
a(F0.0
F7.123630892016827e-16
tp1062
a(F0.0
F7.123630892016827e-16
tp1063
a(F0.0
F7.123630892016827e-16
tp1064
a(F0.0
F7.123630892016827e-16
tp1065
a(F0.0
F7.123630892016827e-16
tp1066
a(F0.0
F2.9172964605402237e-16
tp1067
a(F0.0
F2.9172964605402237e-16
tp1068
a(F0.0
F2.9172964605402237e-16
tp1069
a(F0.0
F2.9172964605402237e-16
tp1070
a(F0.0
F2.9172964605402237e-16
tp1071
a(F0.0
F2.9172964605402237e-16
tp1072
a(F0.0
F8.751889381620671e-16
tp1073
a(F0.0
F2.9172964605402237e-16
tp1074
a(F0.0
F2.9172964605402237e-16
tp1075
a(F0.0
F2.9172964605402237e-16
tp1076
a(F0.0
F2.9172964605402237e-16
tp1077
a(F0.0
F2.9172964605402237e-16
tp1078
a(F0.0
F1.458648230270112e-15
tp1079
a(F0.0
F2.9172964605402237e-16
tp1080
a(F0.0
F2.9172964605402237e-16
tp1081
a(F0.0
F8.751889381620671e-16
tp1082
a(F0.0
F2.9172964605402237e-16
tp1083
a(F0.0
F2.9172964605402237e-16
tp1084
a(F0.0
F2.9172964605402237e-16
tp1085
a(F0.0
F2.9172964605402237e-16
tp1086
a(F0.0
F2.9172964605402237e-16
tp1087
a(F0.16666666666666666
F8.751889381620671e-16
tp1088
a(F0.0
F2.9172964605402237e-16
tp1089
a(F0.0
F2.9172964605402237e-16
tp1090
a(F0.0
F2.9172964605402237e-16
tp1091
a(F0.0
F2.9172964605402237e-16
tp1092
a(F0.0
F2.9172964605402237e-16
tp1093
a(F0.0
F2.9172964605402237e-16
tp1094
a(F0.0
F8.751889381620671e-16
tp1095
a(F0.0
F2.9172964605402237e-16
tp1096
a(F0.0
F2.9172964605402237e-16
tp1097
a(F0.0
F2.9172964605402237e-16
tp1098
a(F0.0
F2.9172964605402237e-16
tp1099
a(F0.0
F2.618086567151483e-16
tp1100
a(F0.0
F6.7572921041350355e-18
tp1101
a(F0.0
F1.8428978465822825e-18
tp1102
a(F0.0
F6.14299282194094e-19
tp1103
a(F0.0
F6.14299282194094e-19
tp1104
a(F0.0
F6.14299282194094e-19
tp1105
a(F0.0
F6.14299282194094e-19
tp1106
a(F0.0
F6.14299282194094e-19
tp1107
a(F0.0
F6.14299282194094e-19
tp1108
a(F0.0
F6.14299282194094e-19
tp1109
a(F0.0
F6.14299282194094e-19
tp1110
a(F0.16666666666666666
F6.14299282194094e-19
tp1111
a(F0.0
F1.8428978465822825e-18
tp1112
a(F0.0
F6.14299282194094e-19
tp1113
a(F0.0
F6.14299282194094e-19
tp1114
a(F0.0
F6.14299282194094e-19
tp1115
a(F0.0
F6.14299282194094e-19
tp1116
a(F0.0
F6.14299282194094e-19
tp1117
a(F0.0
F1.8428978465822825e-18
tp1118
a(F0.0
F6.14299282194094e-19
tp1119
a(F0.0
F6.14299282194094e-19
tp1120
a(F0.0
F6.14299282194094e-19
tp1121
a(F0.0
F6.14299282194094e-19
tp1122
a(F0.0
F6.14299282194094e-19
tp1123
a(F0.0
F6.14299282194094e-19
tp1124
a(F0.0
F6.14299282194094e-19
tp1125
a(F0.0
F5.528693539746847e-18
tp1126
a(F0.0
F1.8428978465822825e-18
tp1127
a(F0.0
F6.14299282194094e-19
tp1128
a(F0.0
F6.14299282194094e-19
tp1129
a(F0.0
F6.14299282194094e-19
tp1130
a(F0.0
F6.14299282194094e-19
tp1131
a(F0.0
F6.14299282194094e-19
tp1132
a(F0.0
F6.14299282194094e-19
tp1133
a(F0.16666666666666666
F4.470007542774047e-19
tp1134
a(F0.16666666666666666
F4.470007542774047e-19
tp1135
a(F0.16666666666666666
F4.470007542774047e-19
tp1136
a(F0.16666666666666666
F4.470007542774047e-19
tp1137
a(F0.16666666666666666
F4.470007542774047e-19
tp1138
a(F0.16666666666666666
F4.470007542774047e-19
tp1139
a(F0.16666666666666666
F4.470007542774047e-19
tp1140
a(F0.16666666666666666
F4.470007542774047e-19
tp1141
a(F0.16666666666666666
F4.470007542774047e-19
tp1142
a(F0.16666666666666666
F4.470007542774047e-19
tp1143
a(F0.16666666666666666
F4.470007542774047e-19
tp1144
a(F0.16666666666666666
F1.3410022628322142e-18
tp1145
a(F0.16666666666666666
F4.470007542774047e-19
tp1146
a(F0.16666666666666666
F4.470007542774047e-19
tp1147
a(F0.16666666666666666
F4.470007542774047e-19
tp1148
a(F0.16666666666666666
F4.470007542774047e-19
tp1149
a(F0.16666666666666666
F4.470007542774047e-19
tp1150
a(F0.16666666666666666
F4.470007542774047e-19
tp1151
a(F0.16666666666666666
F4.470007542774047e-19
tp1152
a(F0.3333333333333333
F5.811009805606262e-18
tp1153
a(F0.16666666666666666
F1.3410022628322142e-18
tp1154
a(F0.16666666666666666
F4.470007542774047e-19
tp1155
a(F0.16666666666666666
F4.470007542774047e-19
tp1156
a(F0.16666666666666666
F4.470007542774047e-19
tp1157
a(F0.16666666666666666
F4.470007542774047e-19
tp1158
a(F0.16666666666666666
F4.470007542774047e-19
tp1159
a(F0.16666666666666666
F4.470007542774047e-19
tp1160
a(F0.16666666666666666
F4.470007542774047e-19
tp1161
a(F0.16666666666666666
F4.470007542774047e-19
tp1162
a(F0.16666666666666666
F4.470007542774047e-19
tp1163
a(F0.16666666666666666
F4.470007542774047e-19
tp1164
a(F0.16666666666666666
F4.470007542774047e-19
tp1165
a(F0.16666666666666666
F4.470007542774047e-19
tp1166
a(F0.0
F1.321322984342014e-19
tp1167
a(F0.0
F1.321322984342014e-19
tp1168
a(F0.0
F1.321322984342014e-19
tp1169
a(F0.0
F1.321322984342014e-19
tp1170
a(F0.0
F1.321322984342014e-19
tp1171
a(F0.0
F1.321322984342014e-19
tp1172
a(F0.0
F1.321322984342014e-19
tp1173
a(F0.0
F1.321322984342014e-19
tp1174
a(F0.0
F1.321322984342014e-19
tp1175
a(F0.0
F1.321322984342014e-19
tp1176
a(F0.0
F1.321322984342014e-19
tp1177
a(F0.0
F3.9639689530260415e-19
tp1178
a(F0.0
F1.321322984342014e-19
tp1179
a(F0.0
F1.321322984342014e-19
tp1180
a(F0.0
F1.321322984342014e-19
tp1181
a(F0.0
F1.321322984342014e-19
tp1182
a(F0.0
F1.321322984342014e-19
tp1183
a(F0.0
F3.9639689530260425e-19
tp1184
a(F0.0
F1.321322984342014e-19
tp1185
a(F0.16666666666666666
F1.321322984342014e-19
tp1186
a(F0.0
F1.4534552827762154e-18
tp1187
a(F0.0
F3.9639689530260425e-19
tp1188
a(F0.0
F1.321322984342014e-19
tp1189
a(F0.0
F1.321322984342014e-19
tp1190
a(F0.0
F1.321322984342014e-19
tp1191
a(F0.0
F1.321322984342014e-19
tp1192
a(F0.0
F1.321322984342014e-19
tp1193
a(F0.0
F1.321322984342014e-19
tp1194
a(F0.0
F1.321322984342014e-19
tp1195
a(F0.0
F1.321322984342014e-19
tp1196
a(F0.0
F1.321322984342014e-19
tp1197
a(F0.0
F1.321322984342014e-19
tp1198
a(F0.0
F9.249260890394098e-19
tp1199
a(F0.0
F1.6286073993052728e-19
tp1200
a(F0.3333333333333333
F4.778795030062507e-18
tp1201
a(F0.3333333333333333
F1.433638509018752e-17
tp1202
a(F0.5
F6.212433539081258e-17
tp1203
a(F0.3333333333333333
F4.778795030062507e-18
tp1204
a(F0.3333333333333333
F4.778795030062507e-18
tp1205
a(F0.3333333333333333
F1.433638509018752e-17
tp1206
a(F0.3333333333333333
F4.778795030062507e-18
tp1207
a(F0.3333333333333333
F2.389397515031253e-17
tp1208
a(F0.3333333333333333
F4.778795030062507e-18
tp1209
a(F0.3333333333333333
F4.778795030062507e-18
tp1210
a(F0.3333333333333333
F4.778795030062507e-18
tp1211
a(F0.3333333333333333
F2.389397515031253e-17
tp1212
a(F0.3333333333333333
F1.433638509018752e-17
tp1213
a(F0.3333333333333333
F4.778795030062507e-18
tp1214
a(F0.3333333333333333
F4.778795030062507e-18
tp1215
a(F0.3333333333333333
F4.778795030062507e-18
tp1216
a(F0.3333333333333333
F4.778795030062507e-18
tp1217
a(F0.3333333333333333
F4.778795030062507e-18
tp1218
a(F0.3333333333333333
F4.778795030062507e-18
tp1219
a(F0.3333333333333333
F4.778795030062507e-18
tp1220
a(F0.3333333333333333
F4.778795030062507e-18
tp1221
a(F0.3333333333333333
F4.778795030062507e-18
tp1222
a(F0.3333333333333333
F4.778795030062507e-18
tp1223
a(F0.3333333333333333
F2.3893975150312537e-17
tp1224
a(F0.3333333333333333
F1.433638509018752e-17
tp1225
a(F0.3333333333333333
F4.778795030062507e-18
tp1226
a(F0.3333333333333333
F4.778795030062507e-18
tp1227
a(F0.3333333333333333
F4.778795030062507e-18
tp1228
a(F0.3333333333333333
F4.778795030062507e-18
tp1229
a(F0.3333333333333333
F4.778795030062507e-18
tp1230
a(F0.3333333333333333
F4.778795030062507e-18
tp1231
a(F0.3333333333333333
F4.778795030062507e-18
tp1232
a(F0.3333333333333333
F4.778795030062507e-18
tp1233
a(F0.16666666666666666
F2.3614890085663777e-19
tp1234
a(F0.16666666666666666
F2.3614890085663777e-19
tp1235
a(F0.16666666666666666
F2.3614890085663777e-19
tp1236
a(F0.16666666666666666
F2.3614890085663777e-19
tp1237
a(F0.16666666666666666
F2.3614890085663777e-19
tp1238
a(F0.16666666666666666
F2.3614890085663777e-19
tp1239
a(F0.16666666666666666
F2.3614890085663777e-19
tp1240
a(F0.16666666666666666
F2.3614890085663777e-19
tp1241
a(F0.16666666666666666
F1.1807445042831887e-18
tp1242
a(F0.16666666666666666
F7.084467025699133e-19
tp1243
a(F0.16666666666666666
F2.3614890085663777e-19
tp1244
a(F0.16666666666666666
F2.3614890085663777e-19
tp1245
a(F0.16666666666666666
F2.3614890085663777e-19
tp1246
a(F0.16666666666666666
F1.1807445042831887e-18
tp1247
a(F0.16666666666666666
F2.3614890085663777e-19
tp1248
a(F0.16666666666666666
F4.959126917989394e-18
tp1249
a(F0.3333333333333333
F2.3614890085663777e-19
tp1250
a(F0.16666666666666666
F2.3614890085663777e-19
tp1251
a(F0.16666666666666666
F2.3614890085663777e-19
tp1252
a(F0.16666666666666666
F2.3614890085663777e-19
tp1253
a(F0.16666666666666666
F2.3614890085663777e-19
tp1254
a(F0.16666666666666666
F2.3614890085663777e-19
tp1255
a(F0.16666666666666666
F2.3614890085663777e-19
tp1256
a(F0.16666666666666666
F2.3614890085663777e-19
tp1257
a(F0.16666666666666666
F2.3614890085663777e-19
tp1258
a(F0.16666666666666666
F2.3614890085663777e-19
tp1259
a(F0.16666666666666666
F2.3614890085663777e-19
tp1260
a(F0.16666666666666666
F2.3614890085663777e-19
tp1261
a(F0.16666666666666666
F2.3614890085663777e-19
tp1262
a(F0.16666666666666666
F2.3614890085663777e-19
tp1263
a(F0.16666666666666666
F2.3614890085663777e-19
tp1264
a(F0.16666666666666666
F2.3614890085663777e-19
tp1265
a(F0.16666666666666666
F2.3614890085663777e-19
tp1266
a(F0.16666666666666666
F2.275616680982146e-19
tp1267
a(F0.16666666666666666
F2.275616680982146e-19
tp1268
a(F0.16666666666666666
F2.275616680982146e-19
tp1269
a(F0.16666666666666666
F2.275616680982146e-19
tp1270
a(F0.16666666666666666
F2.275616680982146e-19
tp1271
a(F0.16666666666666666
F2.275616680982146e-19
tp1272
a(F0.16666666666666666
F2.275616680982146e-19
tp1273
a(F0.16666666666666666
F2.275616680982146e-19
tp1274
a(F0.16666666666666666
F2.275616680982146e-19
tp1275
a(F0.16666666666666666
F3.4134250214732187e-18
tp1276
a(F0.16666666666666666
F6.826850042946437e-19
tp1277
a(F0.16666666666666666
F2.275616680982146e-19
tp1278
a(F0.16666666666666666
F6.826850042946437e-19
tp1279
a(F0.16666666666666666
F3.4134250214732187e-18
tp1280
a(F0.16666666666666666
F2.275616680982146e-19
tp1281
a(F0.3333333333333333
F2.275616680982146e-19
tp1282
a(F0.16666666666666666
F1.137808340491073e-18
tp1283
a(F0.16666666666666666
F6.826850042946437e-19
tp1284
a(F0.16666666666666666
F2.275616680982146e-19
tp1285
a(F0.16666666666666666
F6.826850042946437e-19
tp1286
a(F0.16666666666666666
F1.137808340491073e-18
tp1287
a(F0.16666666666666666
F6.826850042946437e-19
tp1288
a(F0.16666666666666666
F2.275616680982146e-19
tp1289
a(F0.16666666666666666
F6.826850042946437e-19
tp1290
a(F0.16666666666666666
F2.275616680982146e-19
tp1291
a(F0.16666666666666666
F2.275616680982146e-19
tp1292
a(F0.16666666666666666
F2.275616680982146e-19
tp1293
a(F0.16666666666666666
F2.275616680982146e-19
tp1294
a(F0.16666666666666666
F2.275616680982146e-19
tp1295
a(F0.16666666666666666
F2.275616680982146e-19
tp1296
a(F0.16666666666666666
F2.275616680982146e-19
tp1297
a(F0.16666666666666666
F2.275616680982146e-19
tp1298
a(F0.16666666666666666
F2.275616680982146e-19
tp1299
a(F0.16666666666666666
F9.627609034924464e-19
tp1300
a(F0.0
F5.2720787075246366e-17
tp1301
a(F0.0
F1.0544157415049273e-17
tp1302
a(F0.0
F3.514719138349759e-18
tp1303
a(F0.0
F3.514719138349759e-18
tp1304
a(F0.0
F3.514719138349759e-18
tp1305
a(F0.0
F3.514719138349759e-18
tp1306
a(F0.0
F3.514719138349759e-18
tp1307
a(F0.0
F3.514719138349759e-18
tp1308
a(F0.0
F3.514719138349759e-18
tp1309
a(F0.0
F3.514719138349759e-18
tp1310
a(F0.0
F3.514719138349759e-18
tp1311
a(F0.0
F3.514719138349759e-18
tp1312
a(F0.0
F3.514719138349759e-18
tp1313
a(F0.0
F3.514719138349759e-18
tp1314
a(F0.0
F3.514719138349759e-18
tp1315
a(F0.0
F1.0544157415049273e-17
tp1316
a(F0.0
F3.514719138349759e-18
tp1317
a(F0.0
F1.7573595691748786e-17
tp1318
a(F0.0
F3.514719138349759e-18
tp1319
a(F0.0
F3.514719138349759e-18
tp1320
a(F0.0
F3.514719138349759e-18
tp1321
a(F0.16666666666666666
F1.0544157415049273e-17
tp1322
a(F0.0
F3.514719138349759e-18
tp1323
a(F0.0
F1.0544157415049273e-17
tp1324
a(F0.0
F3.514719138349759e-18
tp1325
a(F0.0
F3.514719138349759e-18
tp1326
a(F0.0
F3.163247224514782e-17
tp1327
a(F0.0
F3.514719138349759e-18
tp1328
a(F0.0
F3.514719138349759e-18
tp1329
a(F0.0
F3.514719138349759e-18
tp1330
a(F0.0
F3.514719138349759e-18
tp1331
a(F0.0
F3.514719138349759e-18
tp1332
a(F0.0
F3.514719138349759e-18
tp1333
a(F0.16666666666666666
F9.947318316084219e-19
tp1334
a(F0.16666666666666666
F9.947318316084219e-19
tp1335
a(F0.16666666666666666
F2.9841954948252656e-18
tp1336
a(F0.16666666666666666
F9.947318316084219e-19
tp1337
a(F0.16666666666666666
F9.947318316084219e-19
tp1338
a(F0.16666666666666666
F9.947318316084219e-19
tp1339
a(F0.16666666666666666
F9.947318316084219e-19
tp1340
a(F0.16666666666666666
F9.947318316084219e-19
tp1341
a(F0.16666666666666666
F9.947318316084219e-19
tp1342
a(F0.16666666666666666
F9.947318316084219e-19
tp1343
a(F0.16666666666666666
F9.947318316084219e-19
tp1344
a(F0.16666666666666666
F9.947318316084219e-19
tp1345
a(F0.16666666666666666
F9.947318316084219e-19
tp1346
a(F0.16666666666666666
F9.947318316084219e-19
tp1347
a(F0.16666666666666666
F2.9841954948252656e-18
tp1348
a(F0.16666666666666666
F9.947318316084219e-19
tp1349
a(F0.16666666666666666
F4.973659158042109e-18
tp1350
a(F0.16666666666666666
F9.947318316084219e-19
tp1351
a(F0.16666666666666666
F2.9841954948252656e-18
tp1352
a(F0.16666666666666666
F9.947318316084219e-19
tp1353
a(F0.16666666666666666
F9.947318316084219e-19
tp1354
a(F0.16666666666666666
F2.984195494825266e-18
tp1355
a(F0.16666666666666666
F1.0942050147692641e-17
tp1356
a(F0.16666666666666666
F9.947318316084219e-19
tp1357
a(F0.16666666666666666
F9.947318316084219e-19
tp1358
a(F0.16666666666666666
F2.984195494825266e-18
tp1359
a(F0.16666666666666666
F9.947318316084219e-19
tp1360
a(F0.16666666666666666
F9.947318316084219e-19
tp1361
a(F0.16666666666666666
F9.947318316084219e-19
tp1362
a(F0.16666666666666666
F9.947318316084219e-19
tp1363
a(F0.3333333333333333
F9.947318316084219e-19
tp1364
a(F0.16666666666666666
F9.947318316084219e-19
tp1365
a(F0.16666666666666666
F4.97365915804211e-18
tp1366
a(F0.0
F1.597599608340799e-18
tp1367
a(F0.0
F1.597599608340799e-18
tp1368
a(F0.0
F4.792798825022397e-18
tp1369
a(F0.0
F1.597599608340799e-18
tp1370
a(F0.0
F1.597599608340799e-18
tp1371
a(F0.0
F1.597599608340799e-18
tp1372
a(F0.0
F1.597599608340799e-18
tp1373
a(F0.0
F1.597599608340799e-18
tp1374
a(F0.0
F1.597599608340799e-18
tp1375
a(F0.0
F1.597599608340799e-18
tp1376
a(F0.0
F1.597599608340799e-18
tp1377
a(F0.0
F1.597599608340799e-18
tp1378
a(F0.0
F1.597599608340799e-18
tp1379
a(F0.0
F4.792798825022397e-18
tp1380
a(F0.0
F1.597599608340799e-18
tp1381
a(F0.0
F7.987998041703995e-18
tp1382
a(F0.0
F1.597599608340799e-18
tp1383
a(F0.0
F4.792798825022397e-18
tp1384
a(F0.0
F1.597599608340799e-18
tp1385
a(F0.0
F1.597599608340799e-18
tp1386
a(F0.0
F1.597599608340799e-18
tp1387
a(F0.0
F1.597599608340799e-18
tp1388
a(F0.0
F1.597599608340799e-18
tp1389
a(F0.0
F1.597599608340799e-18
tp1390
a(F0.0
F1.597599608340799e-18
tp1391
a(F0.0
F1.597599608340799e-18
tp1392
a(F0.0
F1.597599608340799e-18
tp1393
a(F0.0
F1.597599608340799e-18
tp1394
a(F0.0
F1.597599608340799e-18
tp1395
a(F0.0
F1.597599608340799e-18
tp1396
a(F0.16666666666666666
F1.597599608340799e-18
tp1397
a(F0.0
F1.597599608340799e-18
tp1398
a(F0.0
F1.597599608340799e-18
tp1399
a(F0.0
F1.597599608340799e-18
tp1400
a(F0.3333333333333333
F1.2450018630952322e-16
tp1401
a(F0.3333333333333333
F5.928580300453486e-18
tp1402
a(F0.3333333333333333
F5.928580300453486e-18
tp1403
a(F0.3333333333333333
F1.778574090136046e-17
tp1404
a(F0.3333333333333333
F5.928580300453486e-18
tp1405
a(F0.3333333333333333
F5.928580300453486e-18
tp1406
a(F0.3333333333333333
F5.928580300453486e-18
tp1407
a(F0.3333333333333333
F1.778574090136046e-17
tp1408
a(F0.3333333333333333
F5.928580300453486e-18
tp1409
a(F0.3333333333333333
F5.928580300453486e-18
tp1410
a(F0.3333333333333333
F5.928580300453486e-18
tp1411
a(F0.3333333333333333
F5.928580300453486e-18
tp1412
a(F0.3333333333333333
F5.928580300453486e-18
tp1413
a(F0.3333333333333333
F1.778574090136046e-17
tp1414
a(F0.3333333333333333
F5.928580300453486e-18
tp1415
a(F0.3333333333333333
F5.928580300453486e-18
tp1416
a(F0.3333333333333333
F5.928580300453486e-18
tp1417
a(F0.3333333333333333
F5.928580300453486e-18
tp1418
a(F0.3333333333333333
F5.928580300453486e-18
tp1419
a(F0.3333333333333333
F5.928580300453486e-18
tp1420
a(F0.3333333333333333
F5.928580300453486e-18
tp1421
a(F0.3333333333333333
F5.928580300453486e-18
tp1422
a(F0.3333333333333333
F5.928580300453486e-18
tp1423
a(F0.3333333333333333
F5.928580300453486e-18
tp1424
a(F0.3333333333333333
F5.928580300453486e-18
tp1425
a(F0.3333333333333333
F5.928580300453486e-18
tp1426
a(F0.5
F5.3357222704081373e-17
tp1427
a(F0.3333333333333333
F6.521438330498834e-17
tp1428
a(F0.3333333333333333
F1.778574090136046e-17
tp1429
a(F0.3333333333333333
F5.928580300453486e-18
tp1430
a(F0.3333333333333333
F5.928580300453486e-18
tp1431
a(F0.3333333333333333
F5.928580300453486e-18
tp1432
a(F0.3333333333333333
F5.928580300453486e-18
tp1433
a(F0.16666666666666666
F3.575969070114801e-19
tp1434
a(F0.16666666666666666
F1.0727907210344403e-18
tp1435
a(F0.16666666666666666
F3.575969070114801e-19
tp1436
a(F0.16666666666666666
F3.575969070114801e-19
tp1437
a(F0.16666666666666666
F3.575969070114801e-19
tp1438
a(F0.16666666666666666
F1.0727907210344403e-18
tp1439
a(F0.16666666666666666
F3.575969070114801e-19
tp1440
a(F0.16666666666666666
F3.575969070114801e-19
tp1441
a(F0.16666666666666666
F2.503178349080361e-18
tp1442
a(F0.16666666666666666
F3.575969070114801e-19
tp1443
a(F0.16666666666666666
F3.575969070114801e-19
tp1444
a(F0.3333333333333333
F3.575969070114801e-19
tp1445
a(F0.16666666666666666
F3.575969070114801e-19
tp1446
a(F0.16666666666666666
F3.575969070114801e-19
tp1447
a(F0.16666666666666666
F3.575969070114801e-19
tp1448
a(F0.16666666666666666
F3.575969070114801e-19
tp1449
a(F0.16666666666666666
F3.575969070114801e-19
tp1450
a(F0.16666666666666666
F3.575969070114801e-19
tp1451
a(F0.16666666666666666
F3.575969070114801e-19
tp1452
a(F0.16666666666666666
F3.575969070114801e-19
tp1453
a(F0.16666666666666666
F3.575969070114801e-19
tp1454
a(F0.16666666666666666
F3.575969070114801e-19
tp1455
a(F0.16666666666666666
F1.0727907210344403e-18
tp1456
a(F0.16666666666666666
F3.575969070114801e-19
tp1457
a(F0.16666666666666666
F3.575969070114801e-19
tp1458
a(F0.16666666666666666
F3.575969070114801e-19
tp1459
a(F0.16666666666666666
F3.575969070114801e-19
tp1460
a(F0.16666666666666666
F3.575969070114801e-19
tp1461
a(F0.16666666666666666
F3.575969070114801e-19
tp1462
a(F0.16666666666666666
F3.575969070114801e-19
tp1463
a(F0.16666666666666666
F3.575969070114801e-19
tp1464
a(F0.16666666666666666
F3.575969070114801e-19
tp1465
a(F0.16666666666666666
F3.575969070114801e-19
tp1466
a(F0.16666666666666666
F3.0444061002328715e-18
tp1467
a(F0.16666666666666666
F3.0444061002328715e-18
tp1468
a(F0.16666666666666666
F1.0148020334109572e-18
tp1469
a(F0.16666666666666666
F1.0148020334109572e-18
tp1470
a(F0.16666666666666666
F3.0444061002328715e-18
tp1471
a(F0.16666666666666666
F1.0148020334109572e-18
tp1472
a(F0.16666666666666666
F1.0148020334109572e-18
tp1473
a(F0.16666666666666666
F1.0148020334109572e-18
tp1474
a(F0.16666666666666666
F7.103614233876701e-18
tp1475
a(F0.16666666666666666
F1.0148020334109572e-18
tp1476
a(F0.3333333333333333
F1.0148020334109572e-18
tp1477
a(F0.16666666666666666
F1.0148020334109572e-18
tp1478
a(F0.16666666666666666
F1.0148020334109572e-18
tp1479
a(F0.16666666666666666
F1.0148020334109572e-18
tp1480
a(F0.16666666666666666
F1.0148020334109572e-18
tp1481
a(F0.16666666666666666
F1.0148020334109572e-18
tp1482
a(F0.16666666666666666
F1.0148020334109572e-18
tp1483
a(F0.16666666666666666
F1.0148020334109572e-18
tp1484
a(F0.16666666666666666
F1.0148020334109572e-18
tp1485
a(F0.16666666666666666
F1.0148020334109572e-18
tp1486
a(F0.16666666666666666
F1.0148020334109572e-18
tp1487
a(F0.16666666666666666
F3.0444061002328715e-18
tp1488
a(F0.16666666666666666
F1.0148020334109572e-18
tp1489
a(F0.16666666666666666
F1.0148020334109572e-18
tp1490
a(F0.16666666666666666
F1.0148020334109572e-18
tp1491
a(F0.16666666666666666
F1.0148020334109572e-18
tp1492
a(F0.16666666666666666
F1.0148020334109572e-18
tp1493
a(F0.16666666666666666
F1.0148020334109572e-18
tp1494
a(F0.16666666666666666
F1.0148020334109572e-18
tp1495
a(F0.16666666666666666
F1.0148020334109572e-18
tp1496
a(F0.16666666666666666
F1.0148020334109572e-18
tp1497
a(F0.16666666666666666
F1.0148020334109572e-18
tp1498
a(F0.16666666666666666
F1.0148020334109572e-18
tp1499
a(F0.16666666666666666
F3.2092030116414883e-19
tp1500
a(F0.0
F1.3080888915041044e-15
tp1501
a(F0.0
F2.6161777830082083e-16
tp1502
a(F0.0
F2.6161777830082083e-16
tp1503
a(F0.0
F1.308088891504104e-15
tp1504
a(F0.0
F2.6161777830082083e-16
tp1505
a(F0.0
F2.6161777830082083e-16
tp1506
a(F0.0
F2.6161777830082083e-16
tp1507
a(F0.0
F2.6161777830082083e-16
tp1508
a(F0.0
F2.6161777830082083e-16
tp1509
a(F0.0
F2.6161777830082083e-16
tp1510
a(F0.0
F2.6161777830082083e-16
tp1511
a(F0.0
F2.6161777830082083e-16
tp1512
a(F0.16666666666666666
F1.308088891504104e-15
tp1513
a(F0.0
F2.6161777830082083e-16
tp1514
a(F0.0
F7.848533349024626e-16
tp1515
a(F0.0
F7.848533349024626e-16
tp1516
a(F0.0
F2.6161777830082083e-16
tp1517
a(F0.0
F2.6161777830082083e-16
tp1518
a(F0.0
F2.6161777830082083e-16
tp1519
a(F0.0
F2.6161777830082083e-16
tp1520
a(F0.0
F2.6161777830082083e-16
tp1521
a(F0.0
F7.848533349024626e-16
tp1522
a(F0.0
F2.6161777830082083e-16
tp1523
a(F0.0
F2.6161777830082083e-16
tp1524
a(F0.0
F2.6161777830082083e-16
tp1525
a(F0.0
F7.848533349024626e-16
tp1526
a(F0.0
F2.6161777830082083e-16
tp1527
a(F0.0
F2.6161777830082083e-16
tp1528
a(F0.0
F2.6161777830082083e-16
tp1529
a(F0.0
F2.8777955613090294e-15
tp1530
a(F0.0
F2.6161777830082083e-16
tp1531
a(F0.0
F2.6161777830082083e-16
tp1532
a(F0.0
F2.6161777830082083e-16
tp1533
a(F0.16666666666666666
F5.1085128307260874e-17
tp1534
a(F0.16666666666666666
F5.1085128307260874e-17
tp1535
a(F0.16666666666666666
F5.1085128307260874e-17
tp1536
a(F0.16666666666666666
F5.1085128307260874e-17
tp1537
a(F0.16666666666666666
F5.1085128307260874e-17
tp1538
a(F0.16666666666666666
F5.1085128307260874e-17
tp1539
a(F0.16666666666666666
F5.1085128307260874e-17
tp1540
a(F0.16666666666666666
F5.1085128307260874e-17
tp1541
a(F0.16666666666666666
F5.1085128307260874e-17
tp1542
a(F0.16666666666666666
F5.1085128307260874e-17
tp1543
a(F0.16666666666666666
F5.1085128307260874e-17
tp1544
a(F0.16666666666666666
F5.1085128307260874e-17
tp1545
a(F0.16666666666666666
F5.1085128307260874e-17
tp1546
a(F0.16666666666666666
F5.1085128307260874e-17
tp1547
a(F0.16666666666666666
F1.5325538492178266e-16
tp1548
a(F0.3333333333333333
F3.320533339971957e-15
tp1549
a(F0.16666666666666666
F2.554256415363044e-16
tp1550
a(F0.16666666666666666
F1.5325538492178266e-16
tp1551
a(F0.16666666666666666
F3.5759589815082615e-16
tp1552
a(F0.16666666666666666
F4.597661547653479e-16
tp1553
a(F0.16666666666666666
F5.1085128307260874e-17
tp1554
a(F0.16666666666666666
F2.554256415363044e-16
tp1555
a(F0.16666666666666666
F5.1085128307260874e-17
tp1556
a(F0.16666666666666666
F5.1085128307260874e-17
tp1557
a(F0.16666666666666666
F5.1085128307260874e-17
tp1558
a(F0.16666666666666666
F5.1085128307260874e-17
tp1559
a(F0.16666666666666666
F5.1085128307260874e-17
tp1560
a(F0.16666666666666666
F5.1085128307260874e-17
tp1561
a(F0.16666666666666666
F5.1085128307260874e-17
tp1562
a(F0.16666666666666666
F5.1085128307260874e-17
tp1563
a(F0.16666666666666666
F5.1085128307260874e-17
tp1564
a(F0.16666666666666666
F5.1085128307260874e-17
tp1565
a(F0.16666666666666666
F5.1085128307260874e-17
tp1566
a(F0.0
F5.825497087670099e-17
tp1567
a(F0.0
F5.825497087670099e-17
tp1568
a(F0.0
F5.825497087670099e-17
tp1569
a(F0.0
F5.825497087670099e-17
tp1570
a(F0.0
F5.825497087670099e-17
tp1571
a(F0.0
F5.825497087670099e-17
tp1572
a(F0.0
F5.825497087670099e-17
tp1573
a(F0.0
F5.825497087670099e-17
tp1574
a(F0.0
F1.74764912630103e-16
tp1575
a(F0.0
F5.825497087670099e-17
tp1576
a(F0.0
F6.40804679643711e-16
tp1577
a(F0.0
F5.825497087670099e-17
tp1578
a(F0.0
F1.5728842136709268e-15
tp1579
a(F0.16666666666666666
F8.73824563150515e-16
tp1580
a(F0.0
F2.9127485438350497e-16
tp1581
a(F0.0
F5.825497087670099e-17
tp1582
a(F0.0
F5.825497087670099e-17
tp1583
a(F0.0
F5.825497087670099e-17
tp1584
a(F0.0
F5.825497087670099e-17
tp1585
a(F0.0
F5.825497087670099e-17
tp1586
a(F0.0
F5.825497087670099e-17
tp1587
a(F0.0
F5.825497087670099e-17
tp1588
a(F0.0
F5.825497087670099e-17
tp1589
a(F0.0
F5.825497087670099e-17
tp1590
a(F0.0
F1.74764912630103e-16
tp1591
a(F0.0
F5.825497087670099e-17
tp1592
a(F0.0
F5.825497087670099e-17
tp1593
a(F0.0
F5.825497087670099e-17
tp1594
a(F0.0
F5.825497087670099e-17
tp1595
a(F0.0
F5.825497087670099e-17
tp1596
a(F0.0
F5.825497087670099e-17
tp1597
a(F0.0
F5.825497087670099e-17
tp1598
a(F0.0
F5.825497087670099e-17
tp1599
a(F0.0
F2.838062683736715e-17
tp1600
a(F0.0
F4.0800170294336287e-13
tp1601
a(F0.0
F1.6320068117734515e-14
tp1602
a(F0.0
F5.440022705911504e-15
tp1603
a(F0.0
F5.440022705911504e-15
tp1604
a(F0.0
F5.440022705911504e-15
tp1605
a(F0.0
F5.440022705911504e-15
tp1606
a(F0.0
F1.6320068117734515e-14
tp1607
a(F0.0
F5.440022705911504e-15
tp1608
a(F0.0
F5.440022705911504e-15
tp1609
a(F0.0
F5.440022705911504e-15
tp1610
a(F0.0
F5.440022705911504e-15
tp1611
a(F0.0
F5.440022705911504e-15
tp1612
a(F0.0
F5.440022705911504e-15
tp1613
a(F0.0
F5.440022705911504e-15
tp1614
a(F0.0
F5.440022705911504e-15
tp1615
a(F0.0
F5.440022705911504e-15
tp1616
a(F0.0
F5.440022705911504e-15
tp1617
a(F0.0
F5.440022705911504e-15
tp1618
a(F0.0
F5.440022705911504e-15
tp1619
a(F0.16666666666666666
F1.6320068117734515e-14
tp1620
a(F0.0
F5.440022705911504e-15
tp1621
a(F0.0
F5.440022705911504e-15
tp1622
a(F0.0
F5.440022705911504e-15
tp1623
a(F0.0
F5.440022705911504e-15
tp1624
a(F0.0
F5.440022705911504e-15
tp1625
a(F0.0
F5.440022705911504e-15
tp1626
a(F0.0
F5.440022705911504e-15
tp1627
a(F0.0
F5.440022705911504e-15
tp1628
a(F0.0
F5.440022705911504e-15
tp1629
a(F0.0
F5.440022705911504e-15
tp1630
a(F0.0
F5.440022705911504e-15
tp1631
a(F0.0
F5.440022705911504e-15
tp1632
a(F0.0
F5.440022705911504e-15
tp1633
a(F0.0
F1.7718931099254612e-15
tp1634
a(F0.0
F5.906310366418204e-16
tp1635
a(F0.0
F5.906310366418204e-16
tp1636
a(F0.0
F5.906310366418204e-16
tp1637
a(F0.0
F5.906310366418204e-16
tp1638
a(F0.0
F1.7718931099254612e-15
tp1639
a(F0.0
F5.906310366418204e-16
tp1640
a(F0.0
F5.906310366418204e-16
tp1641
a(F0.0
F5.906310366418204e-16
tp1642
a(F0.0
F1.7718931099254612e-15
tp1643
a(F0.0
F5.906310366418204e-16
tp1644
a(F0.0
F5.906310366418204e-16
tp1645
a(F0.0
F5.906310366418204e-16
tp1646
a(F0.0
F5.906310366418204e-16
tp1647
a(F0.0
F1.7718931099254612e-15
tp1648
a(F0.0
F5.906310366418204e-16
tp1649
a(F0.16666666666666666
F1.7718931099254612e-15
tp1650
a(F0.0
F5.906310366418204e-16
tp1651
a(F0.0
F5.906310366418204e-16
tp1652
a(F0.0
F5.906310366418204e-16
tp1653
a(F0.0
F5.906310366418204e-16
tp1654
a(F0.0
F5.906310366418204e-16
tp1655
a(F0.0
F5.906310366418204e-16
tp1656
a(F0.0
F5.906310366418204e-16
tp1657
a(F0.0
F5.906310366418204e-16
tp1658
a(F0.0
F5.906310366418204e-16
tp1659
a(F0.0
F5.906310366418204e-16
tp1660
a(F0.0
F5.906310366418204e-16
tp1661
a(F0.0
F5.906310366418204e-16
tp1662
a(F0.0
F5.906310366418204e-16
tp1663
a(F0.0
F5.906310366418204e-16
tp1664
a(F0.0
F5.906310366418204e-16
tp1665
a(F0.0
F5.906310366418204e-16
tp1666
a(F0.0
F1.6761151039835446e-15
tp1667
a(F0.0
F5.587050346611815e-16
tp1668
a(F0.0
F5.587050346611815e-16
tp1669
a(F0.0
F1.6761151039835446e-15
tp1670
a(F0.0
F5.587050346611815e-16
tp1671
a(F0.0
F5.587050346611815e-16
tp1672
a(F0.0
F5.587050346611815e-16
tp1673
a(F0.0
F5.587050346611815e-16
tp1674
a(F0.0
F1.6761151039835446e-15
tp1675
a(F0.0
F1.6761151039835446e-15
tp1676
a(F0.0
F5.587050346611815e-16
tp1677
a(F0.0
F5.587050346611815e-16
tp1678
a(F0.0
F5.587050346611815e-16
tp1679
a(F0.0
F5.587050346611815e-16
tp1680
a(F0.0
F1.6761151039835446e-15
tp1681
a(F0.0
F5.587050346611815e-16
tp1682
a(F0.16666666666666666
F1.6761151039835446e-15
tp1683
a(F0.0
F5.587050346611815e-16
tp1684
a(F0.0
F5.587050346611815e-16
tp1685
a(F0.0
F5.587050346611815e-16
tp1686
a(F0.0
F5.587050346611815e-16
tp1687
a(F0.0
F5.587050346611815e-16
tp1688
a(F0.0
F5.587050346611815e-16
tp1689
a(F0.0
F5.587050346611815e-16
tp1690
a(F0.0
F5.587050346611815e-16
tp1691
a(F0.0
F5.587050346611815e-16
tp1692
a(F0.0
F5.587050346611815e-16
tp1693
a(F0.0
F5.587050346611815e-16
tp1694
a(F0.0
F5.587050346611815e-16
tp1695
a(F0.0
F5.587050346611815e-16
tp1696
a(F0.0
F5.587050346611815e-16
tp1697
a(F0.0
F5.587050346611815e-16
tp1698
a(F0.0
F5.587050346611815e-16
tp1699
a(F0.0
F1.3194948690934286e-15
tp1700
a(F0.0
F2.723270980076226e-18
tp1701
a(F0.0
F9.07756993358742e-19
tp1702
a(F0.0
F9.07756993358742e-19
tp1703
a(F0.0
F2.723270980076226e-18
tp1704
a(F0.0
F9.07756993358742e-19
tp1705
a(F0.0
F9.07756993358742e-19
tp1706
a(F0.0
F2.723270980076226e-18
tp1707
a(F0.16666666666666666
F9.07756993358742e-19
tp1708
a(F0.0
F9.07756993358742e-19
tp1709
a(F0.0
F9.07756993358742e-19
tp1710
a(F0.0
F9.07756993358742e-19
tp1711
a(F0.0
F9.07756993358742e-19
tp1712
a(F0.0
F9.07756993358742e-19
tp1713
a(F0.0
F9.07756993358742e-19
tp1714
a(F0.0
F9.07756993358742e-19
tp1715
a(F0.0
F9.07756993358742e-19
tp1716
a(F0.0
F9.07756993358742e-19
tp1717
a(F0.0
F9.07756993358742e-19
tp1718
a(F0.0
F9.07756993358742e-19
tp1719
a(F0.0
F9.07756993358742e-19
tp1720
a(F0.0
F9.07756993358742e-19
tp1721
a(F0.0
F9.07756993358742e-19
tp1722
a(F0.0
F9.07756993358742e-19
tp1723
a(F0.0
F9.07756993358742e-19
tp1724
a(F0.0
F9.07756993358742e-19
tp1725
a(F0.0
F2.723270980076226e-18
tp1726
a(F0.0
F9.07756993358742e-19
tp1727
a(F0.0
F2.723270980076226e-18
tp1728
a(F0.0
F9.07756993358742e-19
tp1729
a(F0.0
F9.07756993358742e-19
tp1730
a(F0.0
F9.07756993358742e-19
tp1731
a(F0.0
F9.07756993358742e-19
tp1732
a(F0.0
F9.07756993358742e-19
tp1733
a(F0.0
F5.446541960152451e-19
tp1734
a(F0.0
F5.446541960152451e-19
tp1735
a(F0.0
F5.446541960152451e-19
tp1736
a(F0.0
F5.446541960152451e-19
tp1737
a(F0.0
F5.446541960152451e-19
tp1738
a(F0.0
F5.446541960152451e-19
tp1739
a(F0.0
F5.446541960152451e-19
tp1740
a(F0.0
F5.446541960152451e-19
tp1741
a(F0.0
F5.446541960152451e-19
tp1742
a(F0.0
F5.446541960152451e-19
tp1743
a(F0.0
F5.446541960152451e-19
tp1744
a(F0.0
F1.6339625880457355e-18
tp1745
a(F0.0
F1.6339625880457355e-18
tp1746
a(F0.0
F1.6339625880457355e-18
tp1747
a(F0.0
F5.446541960152451e-19
tp1748
a(F0.0
F5.446541960152451e-19
tp1749
a(F0.0
F4.901887764137206e-18
tp1750
a(F0.0
F5.446541960152451e-19
tp1751
a(F0.0
F5.446541960152451e-19
tp1752
a(F0.0
F5.446541960152451e-19
tp1753
a(F0.0
F2.723270980076226e-18
tp1754
a(F0.16666666666666666
F1.6339625880457355e-18
tp1755
a(F0.0
F1.6339625880457355e-18
tp1756
a(F0.0
F3.8125793721067154e-18
tp1757
a(F0.0
F5.446541960152451e-19
tp1758
a(F0.0
F5.446541960152451e-19
tp1759
a(F0.0
F5.446541960152451e-19
tp1760
a(F0.0
F5.446541960152451e-19
tp1761
a(F0.0
F1.6339625880457355e-18
tp1762
a(F0.0
F5.446541960152451e-19
tp1763
a(F0.0
F5.446541960152451e-19
tp1764
a(F0.0
F5.446541960152451e-19
tp1765
a(F0.0
F3.8125793721067154e-18
tp1766
a(F0.0
F4.608612427821306e-19
tp1767
a(F0.0
F4.608612427821306e-19
tp1768
a(F0.0
F4.608612427821306e-19
tp1769
a(F0.0
F4.608612427821306e-19
tp1770
a(F0.0
F4.608612427821306e-19
tp1771
a(F0.0
F4.608612427821306e-19
tp1772
a(F0.0
F4.608612427821306e-19
tp1773
a(F0.0
F4.608612427821306e-19
tp1774
a(F0.0
F4.608612427821306e-19
tp1775
a(F0.0
F4.608612427821306e-19
tp1776
a(F0.0
F1.3825837283463919e-18
tp1777
a(F0.0
F1.3825837283463919e-18
tp1778
a(F0.0
F1.3825837283463919e-18
tp1779
a(F0.0
F5.991196156167697e-18
tp1780
a(F0.0
F4.608612427821306e-19
tp1781
a(F0.0
F4.147751185039175e-18
tp1782
a(F0.0
F3.2260286994749137e-18
tp1783
a(F0.0
F4.147751185039175e-18
tp1784
a(F0.0
F4.608612427821306e-19
tp1785
a(F0.0
F2.3043062139106526e-18
tp1786
a(F0.16666666666666666
F4.608612427821306e-19
tp1787
a(F0.0
F1.3825837283463919e-18
tp1788
a(F0.0
F4.608612427821306e-19
tp1789
a(F0.0
F4.608612427821306e-19
tp1790
a(F0.0
F4.608612427821306e-19
tp1791
a(F0.0
F4.608612427821306e-19
tp1792
a(F0.0
F4.608612427821306e-19
tp1793
a(F0.0
F4.608612427821306e-19
tp1794
a(F0.0
F4.608612427821306e-19
tp1795
a(F0.0
F4.608612427821306e-19
tp1796
a(F0.0
F4.608612427821306e-19
tp1797
a(F0.0
F4.608612427821306e-19
tp1798
a(F0.0
F4.608612427821306e-19
tp1799
a(F0.0
F9.07756993358742e-19
tp1800
a.